	.386p
	ifndef	??version
?debug	macro
	endm
publicdll macro	name
	public	name
	endm
	endif
	?debug	V 300h
	?debug	S "CHANNEL.CPP"
	?debug	C E97C62291F0B4348414E4E454C2E435050
	?debug	C E9CE63291F0B4348414E4E454C2E485050
	?debug	C E94019C9E018443A5C42435C494E434C5544455C494F5354524541+
	?debug	C 4D2E48
	?debug	C E94019C9E015443A5C42435C494E434C5544455C5F444546532E48
	?debug	C E94019C9E013443A5C42435C494E434C5544455C4D454D2E48
	?debug	C E94019C9E015443A5C42435C494E434C5544455C5F4E554C4C2E48
	?debug	C E9A086CC1E162E2E5C4D4F44454C535C4E494C434C4153532E4850+
	?debug	C 50
	?debug	C E94019C9E018443A5C42435C494E434C5544455C494F5354524541+
	?debug	C 4D2E48
	?debug	C E99985CC1E132E2E5C4D4F44454C535C5A56454E4F2E485050
	?debug	C E9A086CC1E162E2E5C4D4F44454C535C4E494C434C4153532E4850+
	?debug	C 50
	?debug	C E90395CC1E122E2E5C4D4F44454C535C4C494E4B2E485050
	?debug	C E94019C9E016443A5C42435C494E434C5544455C535452494E472E+
	?debug	C 48
	?debug	C E9A086CC1E162E2E5C4D4F44454C535C4E494C434C4153532E4850+
	?debug	C 50
CHANNEL_TEXT	segment byte public use16 'CODE'
CHANNEL_TEXT	ends
DGROUP	group	_DATA,_BSS
	assume	cs:CHANNEL_TEXT,ds:DGROUP
_DATA	segment word public use16 'DATA'
d@	label	byte
d@w	label	word
_DATA	ends
_BSS	segment word public use16 'BSS'
b@	label	byte
b@w	label	word
_BSS	ends
CHANNEL_TEXT	segment byte public use16 'CODE'
	?debug	C E8010B4348414E4E454C2E4350507C62291F
   ;	
   ;	Channel::Channel(void)
   ;	
	?debug	L 7
	assume	cs:CHANNEL_TEXT
@Channel@$bctr$qv	proc	far
	?debug	B
	push	bp
	mov	bp,sp
	?debug	C F811404368616E6E656C402462637472247176
	?debug	C E318000400161900
	?debug	C E604746869731802060000
	?debug	B
	cmp	word ptr __stklen,sp
	ja	short @1@86
	call	far ptr F_OVERFLOW@
@1@86:
   ;	
   ;	{
   ;	
	?debug	L 8
	cmp	dword ptr [bp+6],large 0
	jne	short @1@142
	push	12
	call	far ptr @$bnew$qui
	pop	cx
	mov	word ptr [bp+8],dx
	mov	word ptr [bp+6],ax
	or	ax,dx
	je	short @1@170
@1@142:
	les	bx,dword ptr [bp+6]
	mov	word ptr es:[bx],offset @@NilClass@
	les	bx,dword ptr [bp+6]
	mov	word ptr es:[bx],offset @@Channel@
@1@170:
   ;	
   ;	
   ;	};
   ;	
	?debug	L 10
	mov	dx,word ptr [bp+8]
	mov	ax,word ptr [bp+6]
	jmp	short @1@198
@1@198:
	pop	bp
	ret	
	?debug	C E604746869731802060000
	?debug	E
	?debug	E
@Channel@$bctr$qv	endp
   ;	
   ;	int Channel::Build(void)
   ;	
	?debug	L 12
	assume	cs:CHANNEL_TEXT
@Channel@Build$qv	proc	far
	?debug	B
	enter	4,0
	push	si
	push	ds
	mov	ax,DGROUP
	mov	ds,ax
	?debug	C F811404368616E6E656C404275696C64247176
	?debug	C E604746869731802060000
	?debug	B
	cmp	word ptr __stklen,sp
	ja	short @2@86
	call	far ptr F_OVERFLOW@
@2@86:
   ;	
   ;	{
   ;	 int ret=1;
   ;	
	?debug	L 14
	mov	si,1
   ;	
   ;	 NilZveno *P=Ptr;
   ;	
	?debug	L 15
	les	bx,dword ptr [bp+6]
	jmp	short @2@142
@2@114:
   ;	
   ;	
   ;	 while(P && ret)
   ;	   {
   ;	   ret=P->Build();
   ;	
	?debug	L 19
	push	word ptr [bp-2]
	push	word ptr [bp-4]
	les	bx,dword ptr [bp-4]
	mov	bx,word ptr es:[bx]
	call	dword ptr [bx+28]
	add	sp,4
	mov	si,ax
   ;	
   ;	   P=P->next;
   ;	
	?debug	L 20
	les	bx,dword ptr [bp-4]
@2@142:
	mov	eax,dword ptr es:[bx+8]
	mov	dword ptr [bp-4],eax
	?debug	L 17
	cmp	dword ptr [bp-4],large 0
	je	short @2@226
	or	si,si
	jne	short @2@114
@2@226:
   ;	
   ;	   }
   ;	 return ret;
   ;	
	?debug	L 22
	mov	ax,si
	jmp	short @2@254
@2@254:
   ;	
   ;	}
   ;	
	?debug	L 23
	pop	ds
	pop	si
	leave	
	ret	
	?debug	C E31A000400161B00
	?debug	C E601501A02FCFF00037265740404060004746869+
	?debug	C 731802060000
	?debug	E
	?debug	E
@Channel@Build$qv	endp
   ;	
   ;	float Channel::Calc(float val)
   ;	
	?debug	L 25
	assume	cs:CHANNEL_TEXT
@Channel@Calc$qf	proc	far
	?debug	B
	enter	4,0
	push	ds
	mov	ax,DGROUP
	mov	ds,ax
	?debug	C F810404368616E6E656C4043616C63247166
	?debug	C E60376616C0E0A0A000004746869731802060000
	?debug	B
	cmp	word ptr __stklen,sp
	ja	short @3@86
	call	far ptr F_OVERFLOW@
@3@86:
   ;	
   ;	{
   ;	 NilZveno *P=Ptr;
   ;	
	?debug	L 27
	les	bx,dword ptr [bp+6]
	jmp	short @3@142
@3@114:
   ;	
   ;	
   ;	 while(P)
   ;	   {
   ;	   val=P->Calc(val);
   ;	
	?debug	L 31
	fld	dword ptr [bp+10]
	sub	sp,4
	fstp	dword ptr [bp-10]
	fwait	
	push	word ptr [bp-2]
	push	word ptr [bp-4]
	les	bx,dword ptr [bp-4]
	mov	bx,word ptr es:[bx]
	call	dword ptr [bx+24]
	add	sp,8
	fstp	dword ptr [bp+10]
   ;	
   ;	   P=P->next;
   ;	
	?debug	L 32
	fwait	
	les	bx,dword ptr [bp-4]
@3@142:
	mov	eax,dword ptr es:[bx+8]
	mov	dword ptr [bp-4],eax
	?debug	L 29
	cmp	dword ptr [bp-4],large 0
	jne	short @3@114
   ;	
   ;	   }
   ;	 return val;
   ;	
	?debug	L 34
	fld	dword ptr [bp+10]
	jmp	short @3@226
@3@226:
   ;	
   ;	}
   ;	
	?debug	L 35
	pop	ds
	leave	
	ret	
	?debug	C E601501A02FCFF00047468697318020600000376+
	?debug	C 616C0E0A0A0000
	?debug	E
	?debug	E
@Channel@Calc$qf	endp
   ;	
   ;	void Channel::Load(istream& is)
   ;	
	?debug	L 37
	assume	cs:CHANNEL_TEXT
@Channel@Load$qm7istream	proc	far
	?debug	B
	enter	46,0
	push	si
	?debug	C F818404368616E6E656C404C6F616424716D3769+
	?debug	C 73747265616D
	?debug	C E31C000400351D00
	?debug	C E60269731C0A0A000004746869731802060000
	?debug	B
	cmp	word ptr __stklen,sp
	ja	short @4@86
	call	far ptr F_OVERFLOW@
@4@86:
   ;	
   ;	{
   ;	 char ch=',',Nik[NikLength];
   ;	
	?debug	L 39
	mov	byte ptr [bp-1],44
   ;	
   ;	 NilZveno *Z;
   ;	 int ok=1;
   ;	
	?debug	L 41
	mov	si,1
	jmp	short @4@226
@4@114:
   ;	
   ;	
   ;	
   ;	 while(ch==',' && ok)
   ;	   {
   ;	   is >> Nik; // читаем идентификатор звена
   ;	
	?debug	L 46
	push	ss
	lea	ax,word ptr [bp-46]
	push	ax
	push	word ptr [bp+12]
	push	word ptr [bp+10]
	call	far ptr @istream@$brsh$qnzc
	add	sp,8
   ;	
   ;	   Z=(NilZveno *)RegList::GetObject(Nik);
   ;	
	?debug	L 47
	push	ss
	lea	ax,word ptr [bp-46]
	push	ax
	call	far ptr @RegList@GetObject$qnzc
	add	sp,4
	mov	word ptr [bp-4],dx
	mov	word ptr [bp-6],ax
   ;	
   ;	   if(Z) { Z->next=Ptr; Z->Load(is); Ptr=Z; }
   ;	
	?debug	L 48
	cmp	dword ptr [bp-6],large 0
	je	short @4@170
	les	bx,dword ptr [bp+6]
	mov	eax,dword ptr es:[bx+8]
	les	bx,dword ptr [bp-6]
	mov	dword ptr es:[bx+8],eax
	push	word ptr [bp+12]
	push	word ptr [bp+10]
	push	word ptr [bp-4]
	push	word ptr [bp-6]
	les	bx,dword ptr [bp-6]
	mov	bx,word ptr es:[bx]
	call	dword ptr [bx+4]
	add	sp,8
	les	bx,dword ptr [bp+6]
	mov	eax,dword ptr [bp-6]
	mov	dword ptr es:[bx+8],eax
	jmp	short @4@198
@4@170:
   ;	
   ;	   else ok=0;
   ;	
	?debug	L 49
	xor	si,si
@4@198:
   ;	
   ;	   is >> ch;  // ? разделитель звеньев или конец канала
   ;	
	?debug	L 50
	push	ss
	lea	ax,word ptr [bp-1]
	push	ax
	push	word ptr [bp+12]
	push	word ptr [bp+10]
	call	far ptr @istream@$brsh$qmzc
	add	sp,8
@4@226:
	?debug	L 44
	cmp	byte ptr [bp-1],44
	jne	short @4@282
	or	si,si
	je short	@@6
	jmp	@4@114
@@6:
@4@282:
   ;	
   ;	   }
   ;	 return;
   ;	
	?debug	L 52
	jmp	short @4@310
@4@310:
   ;	
   ;	}
   ;	
	?debug	L 53
	pop	si
	leave	
	ret	
	?debug	C E31E0028001A02
	?debug	C E6026F6B04040600015A1A02FAFF00034E696B1E+
	?debug	C 02D2FF000263680202FFFF000474686973180206+
	?debug	C 00000269731C0A0A0000
	?debug	E
	?debug	E
@Channel@Load$qm7istream	endp
   ;	
   ;	void Channel::Save(ostream& os)
   ;	
	?debug	L 55
	assume	cs:CHANNEL_TEXT
@Channel@Save$qm7ostream	proc	far
	?debug	B
	enter	6,0
	?debug	C F818404368616E6E656C405361766524716D376F+
	?debug	C 73747265616D
	?debug	C E31F000400352000
	?debug	C E6026F731F0A0A000004746869731802060000
	?debug	B
	cmp	word ptr __stklen,sp
	ja	short @5@86
	call	far ptr F_OVERFLOW@
@5@86:
   ;	
   ;	{
   ;	 char Nik[NikLength];
   ;	 NilZveno *Z=Ptr;
   ;	
	?debug	L 58
	les	bx,dword ptr [bp+6]
	mov	eax,dword ptr es:[bx+8]
	mov	dword ptr [bp-4],eax
   ;	
   ;	 int ok=1;
   ;	
	?debug	L 59
	mov	word ptr [bp-6],1
	jmp	short @5@226
@5@114:
   ;	
   ;	
   ;	
   ;	 while(Z && ok)
   ;	   {
   ;	   os << Z->NikName; // пишем идентификатор звена
   ;	
	?debug	L 64
	push	0
	push	0
	push	ds
	push	offset DGROUP:@NilZveno@NikName
	push	word ptr [bp+12]
	push	word ptr [bp+10]
	call	far ptr @ostream@outstr$qnxzct1
	add	sp,12
   ;	
   ;	   Z->Save(os); Z=Z->next;
   ;	
	?debug	L 65
	push	word ptr [bp+12]
	push	word ptr [bp+10]
	push	word ptr [bp-2]
	push	word ptr [bp-4]
	les	bx,dword ptr [bp-4]
	mov	bx,word ptr es:[bx]
	call	dword ptr [bx]
	add	sp,8
	les	bx,dword ptr [bp-4]
	mov	eax,dword ptr es:[bx+8]
	mov	dword ptr [bp-4],eax
   ;	
   ;	   if(Z) os << ','; // будет продолжение
   ;	
	?debug	L 66
	cmp	dword ptr [bp-4],large 0
	je	short @5@170
	push	44
	jmp	short @5@198
@5@170:
   ;	
   ;	   else  os << '.'; // конец канала
   ;	
	?debug	L 67
	push	46
@5@198:
	push	word ptr [bp+12]
	push	word ptr [bp+10]
	call	far ptr @ostream@$blsh$qzc
	add	sp,6
@5@226:
	?debug	L 62
	cmp	dword ptr [bp-4],large 0
	je	short @5@282
	cmp	word ptr [bp-6],0
	jne	short @5@114
@5@282:
   ;	
   ;	   }
   ;	 return;
   ;	
	?debug	L 69
	jmp	short @5@310
@5@310:
   ;	
   ;	}
   ;	
	?debug	L 70
	leave	
	ret	
	?debug	C E6026F6B0402FAFF00015A1A02FCFF0004746869+
	?debug	C 731802060000026F731F0A0A0000
	?debug	E
	?debug	E
@Channel@Save$qm7ostream	endp
CHANNEL_TEXT	ends
_DATA	segment word public use16 'DATA'
@Channel@	segment	virtual
@@Channel@	label	byte
	dd	@Channel@Save$qm7ostream
	dd	@Channel@Load$qm7istream
	dd	@NilClass@GetParam$qnv
	dd	@NilClass@SetParam$qnv
	dd	@NilClass@ParamSize$qv
@Channel@	ends
_DATA	ends
_DATA	segment word public use16 'DATA'
@NilClass@	segment	virtual
@@NilClass@	label	byte
	dd	@NilClass@Save$qm7ostream
	dd	@NilClass@Load$qm7istream
	dd	@NilClass@GetParam$qnv
	dd	@NilClass@SetParam$qnv
	dd	@NilClass@ParamSize$qv
	?debug	C E9
	?debug	C FA00000000
@NilClass@	ends
_DATA	ends
_DATA	segment word public use16 'DATA'
s@	label	byte
_DATA	ends
CHANNEL_TEXT	segment byte public use16 'CODE'
CHANNEL_TEXT	ends
	?debug	C E321084E696C436C61737304002E05
	?debug	C ED00050000010400
	?debug	C E3220000002D010401210019404E696C436C6173+
	?debug	C 73405361766524716D376F73747265616D
	?debug	C E3240000002D010401210219404E696C436C6173+
	?debug	C 73404C6F616424716D376973747265616D
	?debug	C E3260000002D040401210416404E696C436C6173+
	?debug	C 7340476574506172616D24716E76
	?debug	C E3280000002D040401210616404E696C436C6173+
	?debug	C 7340536574506172616D24716E76
	?debug	C E32A0000002D040401210816404E696C436C6173+
	?debug	C 7340506172616D53697A65247176
	?debug	C E32C0000001A02
	?debug	C E319074368616E6E656C0C002E01
	?debug	C ED000100000A04010500
	?debug	C E32D0000002D180401190011404368616E6E656C+
	?debug	C 402462637472247176
	?debug	C E32F0000002D010401190018404368616E6E656C+
	?debug	C 405361766524716D376F73747265616D
	?debug	C E3310000002D010401190218404368616E6E656C+
	?debug	C 404C6F616424716D376973747265616D
	?debug	C E3330000002D040401190011404368616E6E656C+
	?debug	C 404275696C64247176
	?debug	C E3350000002D0E0401190010404368616E6E656C+
	?debug	C 4043616C63247166
	?debug	C E31B084E696C5A76656E6F0C002E02
	?debug	C ED000200001304010500
	?debug	C E3370000002D0104011B0A12404E696C5A76656E+
	?debug	C 6F405265736574247176
	?debug	C E3390000002D0E04011B0C11404E696C5A76656E+
	?debug	C 6F4043616C63247166
	?debug	C E33B0000002D0404011B0E12404E696C5A76656E+
	?debug	C 6F404275696C64247176
	?debug	C E33D0000002D0E04091B00
	?debug	C E33F0000002D0404011B1016404E696C5A76656E+
	?debug	C 6F4055736572456E746572247176
	?debug	C E3410000001A02
	?debug	C E34203696F7328002E06
	?debug	C ED000600001D0C00
	?debug	C E34308696F5F7374617465020022000080FF7F5B
	?debug	C E345096F70656E5F6D6F6465020022000080FF7F+
	?debug	C 60
	?debug	C E347087365656B5F646972020022000080FF7F68
	?debug	C E349000400164200
	?debug	C E34A0000002D49040142001740696F7340246263+
	?debug	C 747224716E3973747265616D627566
	?debug	C E34C0000002D01040142000D40696F7340246264+
	?debug	C 7472247176
	?debug	C E34E0000002D0604094200
	?debug	C E3500000002D06040142000D40696F7340666C61+
	?debug	C 677324716C
	?debug	C E3520000002D06040142000D40696F7340736574+
	?debug	C 6624716C6C
	?debug	C E3540000002D06040142000C40696F7340736574+
	?debug	C 6624716C
	?debug	C E3560000002D06040142000E40696F7340756E73+
	?debug	C 65746624716C
	?debug	C E3580000002D0404094200
	?debug	C E35A0000002D0404094200
	?debug	C E35C0000002D0204094200
	?debug	C E35E0000002D0204094200
	?debug	C E3600000002D0404094200
	?debug	C E3620000002D0404094200
	?debug	C E364000400162000
	?debug	C E3650000002D64040142001340696F7340746965+
	?debug	C 24716E376F73747265616D
	?debug	C E3670000002D6404094200
	?debug	C E3690000002D0404094200
	?debug	C E36B0000002D0404094200
	?debug	C E36D0000002D0404094200
	?debug	C E36F0000002D0404094200
	?debug	C E3710000002D0404094200
	?debug	C E3730000002D01040142000D40696F7340636C65+
	?debug	C 6172247169
	?debug	C E375000400160100
	?debug	C E3760000002D7504094200
	?debug	C E3780000002D04040D4200
	?debug	C E37B0973747265616D62756626002E07
	?debug	C ED000700006B0C00
	?debug	C E37C0000002D7A04017B00134073747265616D62+
	?debug	C 7566402462637472247176
	?debug	C E37E0000002D7A04017B00164073747265616D62+
	?debug	C 756640246263747224716E7A6369
	?debug	C E380800000002D0104017B00134073747265616D+
	?debug	C 627566402462647472247176
	?debug	C E380820000002D7A04017B02174073747265616D+
	?debug	C 6275664073657462756624716E7A6369
	?debug	C E380840000002D7A04097B00
	?debug	C E380860000002D7A04017B00184073747265616D+
	?debug	C 6275664073657462756624716E7A636969
	?debug	C E380880000002D0404097B00
	?debug	C E3808A0000002D0404097B00
	?debug	C E3808C0000002D0404097B00
	?debug	C E3808E0000002D0104097B00
	?debug	C E380900000002D0404017B00164073747265616D+
	?debug	C 62756640736765746E24716E7A6369
	?debug	C E380920000002D0404017B04194073747265616D+
	?debug	C 62756640646F5F736765746E24716E7A6369
	?debug	C E380940000002D0404017B06174073747265616D+
	?debug	C 62756640756E646572666C6F77247176
	?debug	C E380960000002D0404097B00
	?debug	C E380980000002D0404017B08174073747265616D+
	?debug	C 62756640706261636B6661696C247169
	?debug	C E3809A0000002D0404097B00
	?debug	C E3809C0000002D0404097B00
	?debug	C E3809E0000002D0404017B00174073747265616D+
	?debug	C 62756640737075746E24716E787A6369
	?debug	C E380A00000002D0404017B0A1A4073747265616D+
	?debug	C 62756640646F5F737075746E24716E787A6369
	?debug	C E380A20000002D0404017B0C164073747265616D+
	?debug	C 627566406F766572666C6F77247169
	?debug	C E380A40000002D0404097B00
	?debug	C E380A60000002D0604017B0E1F4073747265616D+
	?debug	C 627566407365656B6F666624716C387365656B5F+
	?debug	C 64697269
	?debug	C E380A80000002D0604017B10164073747265616D+
	?debug	C 627566407365656B706F7324716C69
	?debug	C E380AA0000002D0404017B12124073747265616D+
	?debug	C 6275664073796E63247176
	?debug	C E380AC0000002D0104017B00114073747265616D+
	?debug	C 62756640646270247176
	?debug	C E380AE000400160200
	?debug	C E380AF0000002D80AE04097B00
	?debug	C E380B10000002D80AE04097B00
	?debug	C E380B30000002D0404097B00
	?debug	C E380B50000002D80AE04097B00
	?debug	C E380B70000002D80AE04097B00
	?debug	C E380B90000002D80AE04097B00
	?debug	C E380BB0000002D80AE04097B00
	?debug	C E380BD0000002D80AE04097B00
	?debug	C E380BF0000002D80AE04097B00
	?debug	C E380C10000002D0104017B00164073747265616D+
	?debug	C 627566407365747024716E7A637431
	?debug	C E380C30000002D0104017B00184073747265616D+
	?debug	C 627566407365746724716E7A6374317431
	?debug	C E380C50000002D0104097B00
	?debug	C E380C70000002D0104097B00
	?debug	C E380C90000002D0104017B00174073747265616D+
	?debug	C 627566407365746224716E7A63743169
	?debug	C E380CB0000002D0104097B00
	?debug	C E380CD0000002D0404097B00
	?debug	C E380CF0000002D0404097B00
	?debug	C E380D10000002D0404017B14184073747265616D+
	?debug	C 62756640646F616C6C6F63617465247176
	?debug	C E380D30000002D0404017B00174073747265616D+
	?debug	C 62756640646F5F736E65787463247176
	?debug	C E380D50000002D7A04017B001D4073747265616D+
	?debug	C 62756640246263747224716D3973747265616D62+
	?debug	C 7566
	?debug	C E380D70000002D0104057B001D4073747265616D+
	?debug	C 62756640246261736724716D3973747265616D62+
	?debug	C 7566
	?debug	C E37A000400167B00
	?debug	C E380D90000002D7A04094200
	?debug	C E380DB0000002D06040142001040696F73406269+
	?debug	C 74616C6C6F63247176
	?debug	C E380DD0000002D04040142000E40696F73407861+
	?debug	C 6C6C6F63247176
	?debug	C E380DF000400350600
	?debug	C E380E00000002D80DF040142000D40696F734069+
	?debug	C 776F7264247169
	?debug	C E380E2000400357500
	?debug	C E380E30000002D80E2040142000D40696F734070+
	?debug	C 776F7264247169
	?debug	C E380E50000002D01040142001740696F73407379+
	?debug	C 6E635F776974685F737464696F247176
	?debug	C E380E70000002D04040142000C40696F7340736B+
	?debug	C 6970247169
	?debug	C E380E90000002D49040142000D40696F73402462+
	?debug	C 637472247176
	?debug	C E380EB0000002D01040142001640696F7340696E+
	?debug	C 697424716E3973747265616D627566
	?debug	C E380ED0000002D01040142001040696F73407365+
	?debug	C 747374617465247169
	?debug	C E380F000000023010400
	?debug	C E380EF0004001680F000
	?debug	C E380F1000400160100
	?debug	C E380F20000002D01040142001040696F73407573+
	?debug	C 657273697A65247169
	?debug	C E380F40000002D49040142001140696F73402462+
	?debug	C 63747224716D33696F73
	?debug	C E380F60000002D01040542001140696F73402462+
	?debug	C 61736724716D33696F73
	?debug	C E320076F73747265616D2C002E04
	?debug	C ED0004020080A50C010680
	?debug	C E380F80000002D64040120001B406F7374726561+
	?debug	C 6D40246263747224716E3973747265616D627566
	?debug	C E380FA0000002D010401200011406F7374726561+
	?debug	C 6D402462647472247176
	?debug	C E380FC0000002D640401200011406F7374726561+
	?debug	C 6D402462637472247169
	?debug	C E380FE0000002D640401200014406F7374726561+
	?debug	C 6D4024626374722471696E7A63
	?debug	C E381000000002D0404092000
	?debug	C E381020000002D0104092000
	?debug	C E381040000002D1F0401200011406F7374726561+
	?debug	C 6D40666C757368247176
	?debug	C E381060000002D1F0401200011406F7374726561+
	?debug	C 6D407365656B7024716C
	?debug	C E381080000002D1F040120001A406F7374726561+
	?debug	C 6D407365656B7024716C387365656B5F646972
	?debug	C E3810A0000002D060401200011406F7374726561+
	?debug	C 6D4074656C6C70247176
	?debug	C E3810C0000002D1F04092000
	?debug	C E3810E0000002D1F0401200015406F7374726561+
	?debug	C 6D40777269746524716E787A6369
	?debug	C E381100000002D1F04092000
	?debug	C E381120000002D1F0405200012406F7374726561+
	?debug	C 6D4024626C736824717A63
	?debug	C E381140000002D1F040D2000
	?debug	C E381160000002D1F040D2000
	?debug	C E381180000002D1F040D2000
	?debug	C E3811A0000002D1F040D2000
	?debug	C E3811C0000002D1F040D2000
	?debug	C E3811E0000002D1F0405200011406F7374726561+
	?debug	C 6D4024626C736824716C
	?debug	C E381200000002D1F0405200012406F7374726561+
	?debug	C 6D4024626C73682471756C
	?debug	C E381220000002D1F040D2000
	?debug	C E381240000002D1F040D2000
	?debug	C E381260000002D1F0405200011406F7374726561+
	?debug	C 6D4024626C7368247167
	?debug	C E381280000002D1F040D2000
	?debug	C E3812A0000002D1F040D2000
	?debug	C E3812C0000002D1F0405200012406F7374726561+
	?debug	C 6D4024626C736824716E76
	?debug	C E3812E0000002D1F040520001B406F7374726561+
	?debug	C 6D4024626C736824716E3973747265616D627566
	?debug	C E381300000002D1F040D2000
	?debug	C E381320000002D1F040520001D406F7374726561+
	?debug	C 6D4024626C736824716E716D33696F73246D3369+
	?debug	C 6F73
	?debug	C E381340000002D040401200013406F7374726561+
	?debug	C 6D40646F5F6F706678247176
	?debug	C E381360000002D010401200013406F7374726561+
	?debug	C 6D40646F5F6F736678247176
	?debug	C E381380000002D640401200011406F7374726561+
	?debug	C 6D402462637472247176
	?debug	C E3813A0000002D010401200017406F7374726561+
	?debug	C 6D406F757473747224716E787A637431
	?debug	C E31D076973747265616D2E002E03
	?debug	C ED0003020080C80C010680
	?debug	C E3813C000400161D00
	?debug	C E3813D0000002D813C04011D001B406973747265+
	?debug	C 616D40246263747224716E3973747265616D6275+
	?debug	C 66
	?debug	C E3813F0000002D0104011D001140697374726561+
	?debug	C 6D402462647472247176
	?debug	C E381410000002D813C04011D0025406973747265+
	?debug	C 616D40246263747224716E3973747265616D6275+
	?debug	C 66696E376F73747265616D
	?debug	C E381430000002D813C04011D0015406973747265+
	?debug	C 616D4024626374722471696E7A6369
	?debug	C E381450000002D813C04011D001B406973747265+
	?debug	C 616D402462637472247169696E376F7374726561+
	?debug	C 6D
	?debug	C E381470000002D0404011D001040697374726561+
	?debug	C 6D4069706678247169
	?debug	C E381490000002D0404091D00
	?debug	C E3814B0000002D0404091D00
	?debug	C E3814D0000002D0104091D00
	?debug	C E3814F0000002D1C04011D001140697374726561+
	?debug	C 6D407365656B6724716C
	?debug	C E381510000002D1C04011D001A40697374726561+
	?debug	C 6D407365656B6724716C387365656B5F646972
	?debug	C E381530000002D0604011D001140697374726561+
	?debug	C 6D4074656C6C67247176
	?debug	C E381550000002D0404091D00
	?debug	C E381570000002D1C04011D001440697374726561+
	?debug	C 6D4067657424716E7A63697A63
	?debug	C E381590000002D1C04091D00
	?debug	C E3815B0000002D1C04011D001340697374726561+
	?debug	C 6D407265616424716E7A6369
	?debug	C E3815D0000002D1C04091D00
	?debug	C E3815F0000002D1C04011D001840697374726561+
	?debug	C 6D406765746C696E6524716E7A63697A63
	?debug	C E381610000002D1C04091D00
	?debug	C E381630000002D1C04011D001B40697374726561+
	?debug	C 6D4067657424716D3973747265616D6275667A63
	?debug	C E381650000002D1C04011D001140697374726561+
	?debug	C 6D4067657424716D7563
	?debug	C E381670000002D1C04011D001140697374726561+
	?debug	C 6D4067657424716D7A63
	?debug	C E381690000002D0404011D000F40697374726561+
	?debug	C 6D40676574247176
	?debug	C E3816B0000002D0404091D00
	?debug	C E3816D0000002D0404091D00
	?debug	C E3816F0000002D1C04011D001440697374726561+
	?debug	C 6D407075746261636B24717A63
	?debug	C E381710000002D1C04011D001340697374726561+
	?debug	C 6D4069676E6F726524716969
	?debug	C E381730000002D1C040D1D00
	?debug	C E381750000002D1C04051D001D40697374726561+
	?debug	C 6D40246272736824716E716D33696F73246D3369+
	?debug	C 6F73
	?debug	C E381770000002D1C04051D001340697374726561+
	?debug	C 6D40246272736824716E7A63
	?debug	C E381790000002D1C040D1D00
	?debug	C E3817B0000002D1C04051D001340697374726561+
	?debug	C 6D40246272736824716D7563
	?debug	C E3817D0000002D1C04051D001340697374726561+
	?debug	C 6D40246272736824716D7A63
	?debug	C E3817F0000002D1C04051D001240697374726561+
	?debug	C 6D40246272736824716D73
	?debug	C E381810000002D1C04051D001240697374726561+
	?debug	C 6D40246272736824716D69
	?debug	C E381830000002D1C04051D001240697374726561+
	?debug	C 6D40246272736824716D6C
	?debug	C E381850000002D1C04051D001340697374726561+
	?debug	C 6D40246272736824716D7573
	?debug	C E381870000002D1C04051D001340697374726561+
	?debug	C 6D40246272736824716D7569
	?debug	C E381890000002D1C04051D001340697374726561+
	?debug	C 6D40246272736824716D756C
	?debug	C E3818B0000002D1C04051D001240697374726561+
	?debug	C 6D40246272736824716D66
	?debug	C E3818D0000002D1C04051D001240697374726561+
	?debug	C 6D40246272736824716D64
	?debug	C E3818F0000002D1C04051D001240697374726561+
	?debug	C 6D40246272736824716D67
	?debug	C E381910000002D1C04051D001B40697374726561+
	?debug	C 6D40246272736824716E3973747265616D627566
	?debug	C E381930000002D813C04011D0011406973747265+
	?debug	C 616D402462637472247176
	?debug	C E381950000002D0104011D001440697374726561+
	?debug	C 6D406561747768697465247176
	?debug	C E381970000002D0204011D001240697374726561+
	?debug	C 6D40646F5F676574247176
	extrn	F_OVERFLOW@:far
	extrn	__stklen:word
	extrn	@RegList@GetObject$qnzc:far
	extrn	@NilZveno@NikName:byte
	public	@Channel@Calc$qf
	public	@Channel@Build$qv
	public	@Channel@Load$qm7istream
	public	@Channel@Save$qm7ostream
	public	@Channel@$bctr$qv
	extrn	@NilClass@ParamSize$qv:far
	extrn	@NilClass@SetParam$qnv:far
	extrn	@NilClass@GetParam$qnv:far
	extrn	@NilClass@Load$qm7istream:far
	extrn	@NilClass@Save$qm7ostream:far
	extrn	@ostream@outstr$qnxzct1:far
	extrn	@ostream@$blsh$qzc:far
	extrn	@istream@$brsh$qmzc:far
	extrn	@istream@$brsh$qnzc:far
	extrn	@$bnew$qui:far
_s@	equ	s@
	?debug	C EA050C
	?debug	C E3819900000023040500
	?debug	C EB0B465F4F564552464C4F5740819900
	?debug	C EB085F5F73746B6C656E0A00
	?debug	C E3819A075265674C69737406002E08
	?debug	C ED0008000080F90400
	?debug	C E3819B000400162100
	?debug	C E3819C0000002D819B0401819A0017405265674C+
	?debug	C 697374404765744F626A65637424716E7A63
	?debug	C E3819E0000002D819B0401819A0015405265674C+
	?debug	C 697374404372656174654F626A247176
	?debug	C E381A00000002D040401819A021C405265674C69+
	?debug	C 737440697356616C69644E696B4E616D6524716E+
	?debug	C 7A63
	?debug	C E381A200040016819A00
	?debug	C E381A3000000231F0400
	?debug	C E381A4000000231C0400
	?debug	C E381A608696F73747265616D32002E0A
	?debug	C ED000A020081000C0203000400
	?debug	C E381A70004001681A600
	?debug	C E381A80000002D81A7040181A6001C40696F7374+
	?debug	C 7265616D40246263747224716E3973747265616D+
	?debug	C 627566
	?debug	C E381AA0000002D01040181A6001240696F737472+
	?debug	C 65616D402462647472247176
	?debug	C E381AC0000002D81A7040181A6001240696F7374+
	?debug	C 7265616D402462637472247176
	?debug	C E381A513696F73747265616D5F77697468617373+
	?debug	C 69676E32002E09
	?debug	C ED0009020081040C010A00
	?debug	C E381AE0004001681A500
	?debug	C E381AF0000002D81AE040181A5001D40696F7374+
	?debug	C 7265616D5F7769746861737369676E4024626374+
	?debug	C 72247176
	?debug	C E381B10000002D01040181A5001D40696F737472+
	?debug	C 65616D5F7769746861737369676E402462647472+
	?debug	C 247176
	?debug	C E381B30004003581A500
	?debug	C E381B40000002D81B3040581A5002140696F7374+
	?debug	C 7265616D5F7769746861737369676E4024626173+
	?debug	C 6724716D33696F73
	?debug	C E381B60000002D81B3040581A5002740696F7374+
	?debug	C 7265616D5F7769746861737369676E4024626173+
	?debug	C 6724716E3973747265616D627566
	?debug	C E381B8126F73747265616D5F7769746861737369+
	?debug	C 676E2C002E0B
	?debug	C ED000B020081090C010400
	?debug	C E381B90004001681B800
	?debug	C E381BA0000002D81B9040181B8001C406F737472+
	?debug	C 65616D5F7769746861737369676E402462637472+
	?debug	C 247176
	?debug	C E381BC0000002D01040181B8001C406F73747265+
	?debug	C 616D5F7769746861737369676E40246264747224+
	?debug	C 7176
	?debug	C E381BE0004003581B800
	?debug	C E381BF0000002D81BE040581B80024406F737472+
	?debug	C 65616D5F7769746861737369676E402462617367+
	?debug	C 24716D376F73747265616D
	?debug	C E381C10000002D81BE040581B80026406F737472+
	?debug	C 65616D5F7769746861737369676E402462617367+
	?debug	C 24716E3973747265616D627566
	?debug	C E381C3126973747265616D5F7769746861737369+
	?debug	C 676E2E002E0C
	?debug	C ED000C0200810E0C010300
	?debug	C E381C40004001681C300
	?debug	C E381C50000002D81C4040181C3001C4069737472+
	?debug	C 65616D5F7769746861737369676E402462637472+
	?debug	C 247176
	?debug	C E381C70000002D01040181C3001C406973747265+
	?debug	C 616D5F7769746861737369676E40246264747224+
	?debug	C 7176
	?debug	C E381C90004003581C300
	?debug	C E381CA0000002D81C9040581C300244069737472+
	?debug	C 65616D5F7769746861737369676E402462617367+
	?debug	C 24716D376973747265616D
	?debug	C E381CC0000002D81C9040581C300264069737472+
	?debug	C 65616D5F7769746861737369676E402462617367+
	?debug	C 24716E3973747265616D627566
	?debug	C E381CE00000023750400
	?debug	C EB0A4024626E65772471756981CE00
	?debug	C E61452696F73747265616D5F7769746861737369+
	?debug	C 676E81B306001450696F73747265616D5F776974+
	?debug	C 6861737369676E81AE060013526F73747265616D+
	?debug	C 5F7769746861737369676E81BE060013506F7374+
	?debug	C 7265616D5F7769746861737369676E81B9060013+
	?debug	C 526973747265616D5F7769746861737369676E81+
	?debug	C C9060013506973747265616D5F77697468617373+
	?debug	C 69676E81C406000950696F73747265616D81A706+
	?debug	C 0008526F73747265616D1F060008506F73747265+
	?debug	C 616D64060008526973747265616D1C0600085069+
	?debug	C 73747265616D813C06000A5073747265616D6275+
	?debug	C 667A06000450696F734906000973747265616D6F+
	?debug	C 66660606000973747265616D706F730606000673+
	?debug	C 697A655F740A060009707472646966665F740606+
	?debug	C 00075265674C697374819A0700074368616E6E65+
	?debug	C 6C190700084E696C5A76656E6F1B0700084E696C+
	?debug	C 436C6173732107000E696F735F757365725F756E+
	?debug	C 696F6E01070013696F73747265616D5F77697468+
	?debug	C 61737369676E81A50700126F73747265616D5F77+
	?debug	C 69746861737369676E81B8070012697374726561+
	?debug	C 6D5F7769746861737369676E81C3070008696F73+
	?debug	C 747265616D81A60700076F73747265616D200700+
	?debug	C 076973747265616D1D07000973747265616D6275+
	?debug	C 667B070003696F73420700
	?debug	F @$blsh$qm7ostreamn8NilClass 419 24 0
	?debug	F @$brsh$qm7istreamn8NilClass 420 24 0
	?debug	C E24C19404E696C436C617373405361766524716D+
	?debug	C 376F73747265616D224C19404E696C436C617373+
	?debug	C 404C6F616424716D376973747265616D244C1640+
	?debug	C 4E696C436C61737340476574506172616D24716E+
	?debug	C 76264C16404E696C436C61737340536574506172+
	?debug	C 616D24716E76284C16404E696C436C6173734050+
	?debug	C 6172616D53697A652471762A4002000000000645+
	?debug	C 72724F626A046011404E696C436C617373404E69+
	?debug	C 6B4E616D652CC004000000
	?debug	C E24A11404368616E6E656C402462637472247176+
	?debug	C 2D4C18404368616E6E656C405361766524716D37+
	?debug	C 6F73747265616D2F4C18404368616E6E656C404C+
	?debug	C 6F616424716D376973747265616D314811404368+
	?debug	C 616E6E656C404275696C64247176334810404368+
	?debug	C 616E6E656C4043616C6324716635400400000000+
	?debug	C 046E6578741800035074721AC00C000000
	?debug	C E24C12404E696C5A76656E6F4052657365742471+
	?debug	C 76374C11404E696C5A76656E6F4043616C632471+
	?debug	C 66394C12404E696C5A76656E6F404275696C6424+
	?debug	C 71763B4813404E696C5A76656E6F404275696C64+
	?debug	C 24716E763D4C16404E696C5A76656E6F40557365+
	?debug	C 72456E7465722471763F4004000000000464656C+
	?debug	C 740E00046E6578741A6011404E696C5A76656E6F+
	?debug	C 404E696B4E616D6541C00C000000
	?debug	C E27008696F5F73746174654370096F70656E5F6D+
	?debug	C 6F64654570087365656B5F64697247600E40696F+
	?debug	C 7340626173656669656C6406601040696F734061+
	?debug	C 646A7573746669656C6406600F40696F7340666C+
	?debug	C 6F61746669656C64064A1740696F734024626374+
	?debug	C 7224716E3973747265616D6275664A4D0D40696F+
	?debug	C 734024626474722471764C480D40696F7340666C+
	?debug	C 6167732471764E480D40696F7340666C61677324+
	?debug	C 716C50480D40696F73407365746624716C6C5248+
	?debug	C 0C40696F73407365746624716C54480E40696F73+
	?debug	C 40756E7365746624716C56480D40696F73407769+
	?debug	C 64746824717658480D40696F7340776964746824+
	?debug	C 71695A480C40696F734066696C6C2471765C480D+
	?debug	C 40696F734066696C6C24717A635E481140696F73+
	?debug	C 40707265636973696F6E24716960481140696F73+
	?debug	C 40707265636973696F6E24717662481340696F73+
	?debug	C 4074696524716E376F73747265616D65480B4069+
	?debug	C 6F734074696524717667480F40696F7340726473+
	?debug	C 7461746524717669480B40696F7340656F662471+
	?debug	C 766B480C40696F73406661696C2471766D480B40+
	?debug	C 696F73406261642471766F480C40696F7340676F+
	?debug	C 6F6424717671480D40696F7340636C6561722471+
	?debug	C 69734B0C40696F7340246F6E7624717676480D40+
	?debug	C 696F734024626E6F7424717678480D40696F7340+
	?debug	C 726462756624717680D9481040696F7340626974+
	?debug	C 616C6C6F6324717680DB480E40696F734078616C+
	?debug	C 6C6F6324717680DD480D40696F734069776F7264+
	?debug	C 24716980E0480D40696F734070776F7264247169+
	?debug	C 80E3481740696F734073796E635F776974685F73+
	?debug	C 7464696F24717680E5480C40696F7340736B6970+
	?debug	C 24716980E74002000000000262707A0005785F74+
	?debug	C 6965640005737461746504000869737065636961+
	?debug	C 6C0400086F7370656369616C040007785F666C61+
	?debug	C 677306000B785F707265636973696F6E04000778+
	?debug	C 5F7769647468040006785F66696C6C04000C6973+
	?debug	C 66785F7370656369616C04000C6F7366785F7370+
	?debug	C 656369616C04000664656C62756604000E617373+
	?debug	C 69676E5F70726976617465044A0D40696F734024+
	?debug	C 6263747224717680E9481640696F7340696E6974+
	?debug	C 24716E3973747265616D62756680EB481040696F+
	?debug	C 7340736574737461746524716980ED600F40696F+
	?debug	C 7340737464696F666C75736880EF600C40696F73+
	?debug	C 406E65787462697406600E40696F734075736572+
	?debug	C 636F756E7404000975736572776F72647380F100+
	?debug	C 066E776F72647304481040696F73407573657273+
	?debug	C 697A6524716980F24A1140696F73402462637472+
	?debug	C 24716D33696F7380F4481140696F734024626173+
	?debug	C 6724716D33696F7380F6C028000000
	?debug	C E4000C40696F7340676F6F646269740000000B40+
	?debug	C 696F7340656F666269740100000C40696F734066+
	?debug	C 61696C6269740200000B40696F73406261646269+
	?debug	C 740400800D40696F7340686172646661696C8000
	?debug	C E4000740696F7340696E0100000840696F73406F+
	?debug	C 75740200000840696F7340617465040000084069+
	?debug	C 6F73406170700800000A40696F73407472756E63+
	?debug	C 1000000D40696F73406E6F637265617465200000+
	?debug	C 0E40696F73406E6F7265706C6163654000800B40+
	?debug	C 696F734062696E6172798000
	?debug	C E4000840696F73406265670000000840696F7340+
	?debug	C 6375720100800840696F7340656E640200
	?debug	C E24A134073747265616D62756640246263747224+
	?debug	C 71767C4A164073747265616D6275664024626374+
	?debug	C 7224716E7A63697E4D134073747265616D627566+
	?debug	C 40246264747224717680804C174073747265616D+
	?debug	C 6275664073657462756624716E7A636980824817+
	?debug	C 4073747265616D6275664073657462756624716E+
	?debug	C 756369808448184073747265616D627566407365+
	?debug	C 7462756624716E7A636969808648134073747265+
	?debug	C 616D627566407367657463247176808848144073+
	?debug	C 747265616D62756640736E65787463247176808A+
	?debug	C 48144073747265616D627566407362756D706324+
	?debug	C 7176808C48144073747265616D6275664073746F+
	?debug	C 737363247176808E48164073747265616D627566+
	?debug	C 40736765746E24716E7A636980904C1940737472+
	?debug	C 65616D62756640646F5F736765746E24716E7A63+
	?debug	C 6980924C174073747265616D62756640756E6465+
	?debug	C 72666C6F77247176809448184073747265616D62+
	?debug	C 756640737075746261636B6324717A6380964C17+
	?debug	C 4073747265616D62756640706261636B6661696C+
	?debug	C 247169809848164073747265616D62756640696E+
	?debug	C 5F617661696C247176809A48134073747265616D+
	?debug	C 627566407370757463247169809C481740737472+
	?debug	C 65616D62756640737075746E24716E787A636980+
	?debug	C 9E4C1A4073747265616D62756640646F5F737075+
	?debug	C 746E24716E787A636980A04C164073747265616D+
	?debug	C 627566406F766572666C6F7724716980A2481940+
	?debug	C 73747265616D627566406F75745F77616974696E+
	?debug	C 6724717680A44C1F4073747265616D6275664073+
	?debug	C 65656B6F666624716C387365656B5F6469726980+
	?debug	C A64C164073747265616D627566407365656B706F+
	?debug	C 7324716C6980A84C124073747265616D62756640+
	?debug	C 73796E6324717680AA48114073747265616D6275+
	?debug	C 664064627024717680AC48124073747265616D62+
	?debug	C 7566406261736524717680AF4812407374726561+
	?debug	C 6D627566406562756624717680B1481240737472+
	?debug	C 65616D62756640626C656E24717680B348134073+
	?debug	C 747265616D62756640706261736524717680B548+
	?debug	C 124073747265616D627566407070747224717680+
	?debug	C B748134073747265616D62756640657070747224+
	?debug	C 717680B948134073747265616D62756640656261+
	?debug	C 636B24717680BB48124073747265616D62756640+
	?debug	C 6770747224717680BD48134073747265616D6275+
	?debug	C 6640656770747224717680BF4816407374726561+
	?debug	C 6D627566407365747024716E7A63743180C14818+
	?debug	C 4073747265616D627566407365746724716E7A63+
	?debug	C 7431743180C348134073747265616D6275664070+
	?debug	C 62756D7024716980C548134073747265616D6275+
	?debug	C 66406762756D7024716980C74817407374726561+
	?debug	C 6D627566407365746224716E7A6374316980C948+
	?debug	C 184073747265616D62756640756E627566666572+
	?debug	C 656424716980CB48184073747265616D62756640+
	?debug	C 756E627566666572656424717680CD4816407374+
	?debug	C 7265616D62756640616C6C6F6361746524717680+
	?debug	C CF4C184073747265616D62756640646F616C6C6F+
	?debug	C 6361746524717680D140020000000006616C6C6F+
	?debug	C 635F040006756E6275665F040005626173655F80+
	?debug	C AE0005656275665F80AE000670626173655F80AE+
	?debug	C 0005707074725F80AE000665707074725F80AE00+
	?debug	C 06656261636B5F80AE0005677074725F80AE0006+
	?debug	C 65677074725F80AE48174073747265616D627566+
	?debug	C 40646F5F736E6578746324717680D34A1D407374+
	?debug	C 7265616D62756640246263747224716D39737472+
	?debug	C 65616D62756680D5481D4073747265616D627566+
	?debug	C 40246261736724716D3973747265616D62756680+
	?debug	C D7C026000000
	?debug	C E24A1B406F73747265616D40246263747224716E+
	?debug	C 3973747265616D62756680F84D11406F73747265+
	?debug	C 616D40246264747224717680FA4A11406F737472+
	?debug	C 65616D40246263747224716980FC4A14406F7374+
	?debug	C 7265616D4024626374722471696E7A6380FE4810+
	?debug	C 406F73747265616D406F70667824717681004810+
	?debug	C 406F73747265616D406F73667824717681024811+
	?debug	C 406F73747265616D40666C757368247176810448+
	?debug	C 11406F73747265616D407365656B7024716C8106+
	?debug	C 481A406F73747265616D407365656B7024716C38+
	?debug	C 7365656B5F64697281084811406F73747265616D+
	?debug	C 4074656C6C70247176810A4810406F7374726561+
	?debug	C 6D4070757424717A63810C4815406F7374726561+
	?debug	C 6D40777269746524716E787A6369810E4815406F+
	?debug	C 73747265616D40777269746524716E7875636981+
	?debug	C 104812406F73747265616D4024626C736824717A+
	?debug	C 6381124812406F73747265616D4024626C736824+
	?debug	C 71756381144811406F73747265616D4024626C73+
	?debug	C 6824717381164812406F73747265616D4024626C+
	?debug	C 73682471757381184811406F73747265616D4024+
	?debug	C 626C7368247169811A4812406F73747265616D40+
	?debug	C 24626C736824717569811C4811406F7374726561+
	?debug	C 6D4024626C736824716C811E4812406F73747265+
	?debug	C 616D4024626C73682471756C81204811406F7374+
	?debug	C 7265616D4024626C736824716681224811406F73+
	?debug	C 747265616D4024626C736824716481244811406F+
	?debug	C 73747265616D4024626C73682471678126481440+
	?debug	C 6F73747265616D4024626C736824716E787A6381+
	?debug	C 284814406F73747265616D4024626C736824716E+
	?debug	C 787563812A4812406F73747265616D4024626C73+
	?debug	C 6824716E76812C481B406F73747265616D402462+
	?debug	C 6C736824716E3973747265616D627566812E4825+
	?debug	C 406F73747265616D4024626C736824716E716D37+
	?debug	C 6F73747265616D246D376F73747265616D813048+
	?debug	C 1D406F73747265616D4024626C736824716E716D+
	?debug	C 33696F73246D33696F7381324813406F73747265+
	?debug	C 616D40646F5F6F70667824717681344813406F73+
	?debug	C 747265616D40646F5F6F73667824717681364A11+
	?debug	C 406F73747265616D402462637472247176813848+
	?debug	C 17406F73747265616D406F757473747224716E78+
	?debug	C 7A637431813AC02C000000
	?debug	C E24A1B406973747265616D40246263747224716E+
	?debug	C 3973747265616D627566813D4D11406973747265+
	?debug	C 616D402462647472247176813F4A254069737472+
	?debug	C 65616D40246263747224716E3973747265616D62+
	?debug	C 7566696E376F73747265616D81414A1540697374+
	?debug	C 7265616D4024626374722471696E7A636981434A+
	?debug	C 1B406973747265616D402462637472247169696E+
	?debug	C 376F73747265616D81454810406973747265616D+
	?debug	C 406970667824716981474811406973747265616D+
	?debug	C 4069706678302471768149481140697374726561+
	?debug	C 6D406970667831247176814B4810406973747265+
	?debug	C 616D4069736678247176814D4811406973747265+
	?debug	C 616D407365656B6724716C814F481A4069737472+
	?debug	C 65616D407365656B6724716C387365656B5F6469+
	?debug	C 7281514811406973747265616D4074656C6C6724+
	?debug	C 717681534810406973747265616D4073796E6324+
	?debug	C 717681554814406973747265616D406765742471+
	?debug	C 6E7A63697A6381574814406973747265616D4067+
	?debug	C 657424716E7563697A6381594813406973747265+
	?debug	C 616D407265616424716E7A6369815B4813406973+
	?debug	C 747265616D407265616424716E756369815D4818+
	?debug	C 406973747265616D406765746C696E6524716E7A+
	?debug	C 63697A63815F4818406973747265616D40676574+
	?debug	C 6C696E6524716E7563697A638161481B40697374+
	?debug	C 7265616D4067657424716D3973747265616D6275+
	?debug	C 667A6381634811406973747265616D4067657424+
	?debug	C 716D756381654811406973747265616D40676574+
	?debug	C 24716D7A638167480F406973747265616D406765+
	?debug	C 7424717681694810406973747265616D40706565+
	?debug	C 6B247176816B4812406973747265616D4067636F+
	?debug	C 756E74247176816D4814406973747265616D4070+
	?debug	C 75746261636B24717A63816F4813406973747265+
	?debug	C 616D4069676E6F72652471696981714825406973+
	?debug	C 747265616D40246272736824716E716D37697374+
	?debug	C 7265616D246D376973747265616D8173481D4069+
	?debug	C 73747265616D40246272736824716E716D33696F+
	?debug	C 73246D33696F7381754813406973747265616D40+
	?debug	C 246272736824716E7A6381774813406973747265+
	?debug	C 616D40246272736824716E756381794813406973+
	?debug	C 747265616D40246272736824716D7563817B4813+
	?debug	C 406973747265616D40246272736824716D7A6381+
	?debug	C 7D4812406973747265616D40246272736824716D+
	?debug	C 73817F4812406973747265616D40246272736824+
	?debug	C 716D6981814812406973747265616D4024627273+
	?debug	C 6824716D6C81834813406973747265616D402462+
	?debug	C 72736824716D757381854813406973747265616D+
	?debug	C 40246272736824716D7569818748134069737472+
	?debug	C 65616D40246272736824716D756C818948124069+
	?debug	C 73747265616D40246272736824716D66818B4812+
	?debug	C 406973747265616D40246272736824716D64818D+
	?debug	C 4812406973747265616D40246272736824716D67+
	?debug	C 818F481B406973747265616D4024627273682471+
	?debug	C 6E3973747265616D62756681914A114069737472+
	?debug	C 65616D4024626374722471768193481440697374+
	?debug	C 7265616D40656174776869746524717681954004+
	?debug	C 000000000767636F756E745F0448124069737472+
	?debug	C 65616D40646F5F6765742471768197C02E000000
	?debug	C E24817405265674C697374404765744F626A6563+
	?debug	C 7424716E7A63819C4C15405265674C6973744043+
	?debug	C 72656174654F626A247176819E4C1C405265674C+
	?debug	C 69737440697356616C69644E696B4E616D652471+
	?debug	C 6E7A6381A0600C405265674C6973744050747281+
	?debug	C A2400200000000046E65787481A2C006000000
	?debug	C E24A1C40696F73747265616D4024626374722471+
	?debug	C 6E3973747265616D62756681A84D1240696F7374+
	?debug	C 7265616D40246264747224717681AA4A1240696F+
	?debug	C 73747265616D40246263747224717681ACC03200+
	?debug	C 0000
	?debug	C E24A1D40696F73747265616D5F77697468617373+
	?debug	C 69676E40246263747224717681AF4D1D40696F73+
	?debug	C 747265616D5F7769746861737369676E40246264+
	?debug	C 747224717681B1482140696F73747265616D5F77+
	?debug	C 69746861737369676E40246261736724716D3369+
	?debug	C 6F7381B4482740696F73747265616D5F77697468+
	?debug	C 61737369676E40246261736724716E3973747265+
	?debug	C 616D62756681B6C032000000
	?debug	C E24A1C406F73747265616D5F7769746861737369+
	?debug	C 676E40246263747224717681BA4D1C406F737472+
	?debug	C 65616D5F7769746861737369676E402462647472+
	?debug	C 24717681BC4824406F73747265616D5F77697468+
	?debug	C 61737369676E40246261736724716D376F737472+
	?debug	C 65616D81BF4826406F73747265616D5F77697468+
	?debug	C 61737369676E40246261736724716E3973747265+
	?debug	C 616D62756681C1C02C000000
	?debug	C E24A1C406973747265616D5F7769746861737369+
	?debug	C 676E40246263747224717681C54D1C4069737472+
	?debug	C 65616D5F7769746861737369676E402462647472+
	?debug	C 24717681C74824406973747265616D5F77697468+
	?debug	C 61737369676E40246261736724716D3769737472+
	?debug	C 65616D81CA4826406973747265616D5F77697468+
	?debug	C 61737369676E40246261736724716E3973747265+
	?debug	C 616D62756681CCC02E000000
	end
