	.386p
	ifndef	??version
?debug	macro
	endm
publicdll macro	name
	public	name
	endm
	endif
	?debug	V 300h
	?debug	S "DSYS.CPP"
	?debug	C E98562291F08445359532E435050
	?debug	C E94019C9E017443A5C42435C494E434C5544455C4653545245414D+
	?debug	C 2E48
	?debug	C E94019C9E015443A5C42435C494E434C5544455C5F444546532E48
	?debug	C E94019C9E018443A5C42435C494E434C5544455C494F5354524541+
	?debug	C 4D2E48
	?debug	C E94019C9E013443A5C42435C494E434C5544455C4D454D2E48
	?debug	C E94019C9E015443A5C42435C494E434C5544455C5F4E554C4C2E48
	?debug	C E94019C9E015443A5C42435C494E434C5544455C46434E544C2E48
	?debug	C E95583CC1E162E2E5C4D4F44454C535C46554E4354494F4E2E4850+
	?debug	C 50
	?debug	C E99985CC1E132E2E5C4D4F44454C535C5A56454E4F2E485050
	?debug	C E9A086CC1E162E2E5C4D4F44454C535C4E494C434C4153532E4850+
	?debug	C 50
	?debug	C E94019C9E018443A5C42435C494E434C5544455C494F5354524541+
	?debug	C 4D2E48
	?debug	C E92C83CC1E142E2E5C4D4F44454C535C4F5343494C4C2E485050
	?debug	C E99985CC1E132E2E5C4D4F44454C535C5A56454E4F2E485050
	?debug	C E93436F41E08445359532E485050
	?debug	C E94019C9E018443A5C42435C494E434C5544455C494F5354524541+
	?debug	C 4D2E48
	?debug	C E94992CC1E0C2E2E5C2E5C5550492E485050
	?debug	C E94019C9E013443A5C42435C494E434C5544455C444F532E48
	?debug	C E9628DCC1E0E2E2E5C2E5C5441424C452E485050
	?debug	C E94019C9E013443A5C42435C494E434C5544455C444F532E48
	?debug	C E9A1B8821D132E2E5C2E2E5C5550495C4441435F4144432E48
	?debug	C E9CE63291F0B4348414E4E454C2E485050
	?debug	C E94019C9E018443A5C42435C494E434C5544455C494F5354524541+
	?debug	C 4D2E48
	?debug	C E9A086CC1E162E2E5C4D4F44454C535C4E494C434C4153532E4850+
	?debug	C 50
DSYS_TEXT	segment byte public use16 'CODE'
DSYS_TEXT	ends
DGROUP	group	_DATA,_BSS
	assume	cs:DSYS_TEXT,ds:DGROUP
_DATA	segment word public use16 'DATA'
d@	label	byte
d@w	label	word
_DATA	ends
_BSS	segment word public use16 'BSS'
b@	label	byte
b@w	label	word
_BSS	ends
DSYS_TEXT	segment byte public use16 'CODE'
	?debug	C E80108445359532E4350508562291F
   ;	
   ;	UPI_dsys::UPI_dsys(char *filename,int ctl): UPI(ctl,MaxChannel,MaxChannel)
   ;	
	?debug	L 11
	assume	cs:DSYS_TEXT
@UPI_dsys@$bctr$qnzci	proc	far
	?debug	B
	enter	104,0
	?debug	C F815405550495F6473797340246263747224716E+
	?debug	C 7A6369
	?debug	C E318000400161900
	?debug	C E31A000400160200
	?debug	C E60363746C040A0E00000866696C656E616D651A+
	?debug	C 0A0A000004746869731802060000
	?debug	B
	cmp	word ptr __stklen,sp
	ja	short @1@86
	call	far ptr F_OVERFLOW@
@1@86:
	cmp	dword ptr [bp+6],large 0
	jne	short @1@142
	push	52
	call	far ptr @$bnew$qui
	pop	cx
	mov	word ptr [bp+8],dx
	mov	word ptr [bp+6],ax
	or	ax,dx
	je	short @1@170
@1@142:
	push	50
	push	50
	push	word ptr [bp+14]
	push	word ptr [bp+8]
	push	word ptr [bp+6]
	call	far ptr @UPI@$bctr$qiii
	add	sp,10
	les	bx,dword ptr [bp+6]
	mov	word ptr es:[bx],offset @@UPI_dsys@
   ;	
   ;	{
   ;	 ifstream is(filename,O_RDONLY);
   ;	
	?debug	L 13
	push	word ptr DGROUP:@filebuf@openprot
	push	1
	push	word ptr [bp+12]
	push	word ptr [bp+10]
	push	0
	push	ss
	lea	ax,word ptr [bp-104]
	push	ax
	call	far ptr @ifstream@$bctr$qnxzcii
	add	sp,14
   ;	
   ;	
   ;	 Ptr=NULL;
   ;	
	?debug	L 15
	les	bx,dword ptr [bp+6]
	mov	dword ptr es:[bx+48],large 0
   ;	
   ;	
   ;	 LoadConfig(is);
   ;	
	?debug	L 17
	push	ss
	lea	ax,word ptr [bp-46]
	push	ax
	push	word ptr [bp+8]
	push	word ptr [bp+6]
	les	bx,dword ptr [bp+6]
	mov	bx,word ptr es:[bx]
	call	dword ptr [bx+24]
	add	sp,8
	push	2
	push	ss
	lea	ax,word ptr [bp-104]
	push	ax
	call	far ptr @ifstream@$bdtr$qv
	add	sp,6
	jmp	short @1@170
@1@170:
   ;	
   ;	 return;
   ;	}
   ;	
	?debug	L 19
	mov	dx,word ptr [bp+8]
	mov	ax,word ptr [bp+6]
	jmp	short @1@198
@1@198:
	leave	
	ret	
	?debug	C E60269731B0298FF000474686973180206000008+
	?debug	C 66696C656E616D651A0A0A00000363746C040A0E+
	?debug	C 0000
	?debug	E
	?debug	E
@UPI_dsys@$bctr$qnzci	endp
   ;	
   ;	UPI_dsys::~UPI_dsys(void)
   ;	
	?debug	L 21
	assume	cs:DSYS_TEXT
@UPI_dsys@$bdtr$qv	proc	far
	?debug	B
	push	bp
	mov	bp,sp
	push	si
	?debug	C F812405550495F64737973402462647472247176
	?debug	C E60664656C657465040A0A000004746869731802+
	?debug	C 060000
	mov	si,word ptr [bp+10]
	?debug	B
	cmp	word ptr __stklen,sp
	ja	short @2@86
	call	far ptr F_OVERFLOW@
@2@86:
   ;	
   ;	{
   ;	
	?debug	L 22
	cmp	dword ptr [bp+6],large 0
	je	short @2@198
	les	bx,dword ptr [bp+6]
	mov	word ptr es:[bx],offset @@UPI_dsys@
   ;	
   ;	 ResetUPI();
   ;	
	?debug	L 23
	push	word ptr [bp+8]
	push	word ptr [bp+6]
	les	bx,dword ptr [bp+6]
	mov	bx,word ptr es:[bx]
	call	dword ptr [bx+28]
	add	sp,4
	jmp	short @2@142
@2@142:
	push	0
	push	word ptr [bp+8]
	push	word ptr [bp+6]
	call	far ptr @UPI@$bdtr$qv
	add	sp,6
	test	si,1
	je	short @2@198
	push	word ptr [bp+8]
	push	word ptr [bp+6]
	call	far ptr @$bdele$qnv
	add	sp,4
@2@198:
   ;	
   ;	 return;
   ;	}
   ;	
	?debug	L 25
	pop	si
	pop	bp
	ret	
	?debug	C E6047468697318020600000664656C657465040C+
	?debug	C 0600
	?debug	E
	?debug	E
@UPI_dsys@$bdtr$qv	endp
   ;	
   ;	void UPI_dsys::ShowConfig(void)
   ;	
	?debug	L 27
	assume	cs:DSYS_TEXT
@UPI_dsys@ShowConfig$qv	proc	far
	?debug	B
	push	bp
	mov	bp,sp
	?debug	C F817405550495F647379734053686F77436F6E66+
	?debug	C 6967247176
	?debug	C E604746869731802060000
	?debug	B
	cmp	word ptr __stklen,sp
	ja	short @3@86
	call	far ptr F_OVERFLOW@
@3@86:
   ;	
   ;	{
   ;	 cout << "\nÚŠ ­ «ÂÄÄ Ž¯¨á ­¨¥ ª ­ «  (á¯¨á®ª §¢¥­ì¥¢ + ¯®¬¥å ) ÄÄÄÄÄÄÄÄÄÄÄÄÄÄÄÄ\n";
   ;	
	?debug	L 29
	push	0
	push	0
	push	ds
	push	offset DGROUP:s@
	push	seg _cout
	push	offset _cout
	call	far ptr @ostream@outstr$qnxzct1
	add	sp,12
   ;	
   ;	 cout <<   "ÀÄÄÄÄÄÁÄÄÄÄÄÄÄÄÄÄÄÄÄÄÄÄÄÄÄÄÄÄÄÄÄÄÄÄÄÄÄÄÄÄÄÄÄÄÄÄÄÄÄÄÄÄÄÄÄÄÄÄÄÄÄÄÄÄÄÄÄ\n";
   ;	
	?debug	L 30
	push	0
	push	0
	push	ds
	push	offset DGROUP:s@+71
	push	seg _cout
	push	offset _cout
	call	far ptr @ostream@outstr$qnxzct1
	add	sp,12
   ;	
   ;	 return;
   ;	
	?debug	L 31
	jmp	short @3@114
@3@114:
   ;	
   ;	}
   ;	
	?debug	L 32
	pop	bp
	ret	
	?debug	C E604746869731802060000
	?debug	E
	?debug	E
@UPI_dsys@ShowConfig$qv	endp
   ;	
   ;	void UPI_dsys::ResetUPI(void)
   ;	
	?debug	L 34
	assume	cs:DSYS_TEXT
@UPI_dsys@ResetUPI$qv	proc	far
	?debug	B
	enter	4,0
	?debug	C F815405550495F64737973405265736574555049+
	?debug	C 247176
	?debug	C E604746869731802060000
	?debug	B
	cmp	word ptr __stklen,sp
	ja	short @4@86
	call	far ptr F_OVERFLOW@
@4@86:
	jmp	short @4@142
@4@114:
   ;	
   ;	{
   ;	 Channel *P;
   ;	  while(Ptr)
   ;	    {
   ;	    P=Ptr->next;
   ;	
	?debug	L 39
	les	bx,dword ptr [bp+6]
	les	bx,dword ptr es:[bx+48]
	mov	ax,word ptr es:[bx+6]
	mov	dx,word ptr es:[bx+4]
	mov	word ptr [bp-2],ax
	mov	word ptr [bp-4],dx
   ;	
   ;	    delete Ptr;
   ;	
	?debug	L 40
	les	bx,dword ptr [bp+6]
	push	word ptr es:[bx+50]
	push	word ptr es:[bx+48]
	call	far ptr @$bdele$qnv
	add	sp,4
   ;	
   ;	    Ptr=P;
   ;	
	?debug	L 41
	les	bx,dword ptr [bp+6]
	mov	eax,dword ptr [bp-4]
	mov	dword ptr es:[bx+48],eax
@4@142:
	?debug	L 37
	les	bx,dword ptr [bp+6]
	cmp	dword ptr es:[bx+48],large 0
	jne	short @4@114
   ;	
   ;	    }
   ;	 return;
   ;	
	?debug	L 43
	jmp	short @4@198
@4@198:
   ;	
   ;	}
   ;	
	?debug	L 44
	leave	
	ret	
	?debug	C E31C000400161D00
	?debug	C E601501C02FCFF0004746869731802060000
	?debug	E
	?debug	E
@UPI_dsys@ResetUPI$qv	endp
   ;	
   ;	int UPI_dsys::LoadConfig(istream& is)
   ;	
	?debug	L 46
	assume	cs:DSYS_TEXT
@UPI_dsys@LoadConfig$qm7istream	proc	far
	?debug	B
	enter	108,0
	?debug	C F81F405550495F64737973404C6F6164436F6E66+
	?debug	C 696724716D376973747265616D
	?debug	C E31E000400351F00
	?debug	C E60269731E0A0A000004746869731802060000
	?debug	B
	cmp	word ptr __stklen,sp
	ja	short @5@86
	call	far ptr F_OVERFLOW@
@5@86:
   ;	
   ;	{
   ;	 Channel *P,*P1=NULL;
   ;	
	?debug	L 48
	mov	dword ptr [bp-8],large 0
   ;	
   ;	 char id[100];
   ;	
   ;	 ResetUPI();
   ;	
	?debug	L 51
	push	word ptr [bp+8]
	push	word ptr [bp+6]
	les	bx,dword ptr [bp+6]
	mov	bx,word ptr es:[bx]
	call	dword ptr [bx+28]
	add	sp,4
   ;	
   ;	 return 0;
   ;	
	?debug	L 52
@5@114:
	xor	ax,ax
	jmp	@5@422
   ;	
   ;	
   ;	 is.read(id,100);
   ;	
	?debug	L 54
	push	100
	push	ss
	lea	ax,word ptr [bp-108]
	push	ax
	push	word ptr [bp+12]
	push	word ptr [bp+10]
	call	far ptr @istream@read$qnzci
	add	sp,10
	jmp	short @5@338
@5@170:
   ;	
   ;	
   ;	
   ;	 while(!is.eof() && !is.bad())
   ;	   {
   ;	   P=new Channel;
   ;	
	?debug	L 59
	push	0
	push	0
	call	far ptr @Channel@$bctr$qv
	add	sp,4
	mov	word ptr [bp-2],dx
	mov	word ptr [bp-4],ax
   ;	
   ;	   P->next=NULL;
   ;	
	?debug	L 60
	les	bx,dword ptr [bp-4]
	mov	dword ptr es:[bx+4],large 0
   ;	
   ;	   if(P1) P1->next=P; else P1=P; P1=P;
   ;	
	?debug	L 61
	cmp	dword ptr [bp-8],large 0
	je	short @5@226
	les	bx,dword ptr [bp-8]
	mov	eax,dword ptr [bp-4]
	mov	dword ptr es:[bx+4],eax
	jmp	short @5@254
@5@226:
	mov	eax,dword ptr [bp-4]
	mov	dword ptr [bp-8],eax
@5@254:
	mov	eax,dword ptr [bp-4]
	mov	dword ptr [bp-8],eax
   ;	
   ;	   if(!Ptr) Ptr=P;
   ;	
	?debug	L 62
	les	bx,dword ptr [bp+6]
	cmp	dword ptr es:[bx+48],large 0
	jne	short @5@310
	les	bx,dword ptr [bp+6]
	mov	eax,dword ptr [bp-4]
	mov	dword ptr es:[bx+48],eax
@5@310:
   ;	
   ;	   P->Load(is);
   ;	
	?debug	L 63
	push	word ptr [bp+12]
	push	word ptr [bp+10]
	push	word ptr [bp-2]
	push	word ptr [bp-4]
	les	bx,dword ptr [bp-4]
	mov	bx,word ptr es:[bx]
	call	dword ptr [bx+4]
	add	sp,8
@5@338:
	?debug	L 57
	les	bx,dword ptr [bp+10]
	mov	bx,word ptr es:[bx]
	test	word ptr es:[bx+10],1
	jne	short @5@394
	les	bx,dword ptr [bp+10]
	mov	bx,word ptr es:[bx]
	test	word ptr es:[bx+10],132
	jne short	@@7
	jmp	@5@170
@@7:
@5@394:
	jmp	@5@114
@5@422:
   ;	
   ;	   }
   ;	 return 0;
   ;	}
   ;	
	?debug	L 66
	leave	
	ret	
	?debug	C E3200064001A02
	?debug	C E6026964200294FF000250311C02F8FF0001501C+
	?debug	C 02FCFF00047468697318020600000269731E0A0A+
	?debug	C 0000
	?debug	E
	?debug	E
@UPI_dsys@LoadConfig$qm7istream	endp
   ;	
   ;	void UPI_dsys::StartUPI(void)
   ;	
	?debug	L 70
	assume	cs:DSYS_TEXT
@UPI_dsys@StartUPI$qv	proc	far
	?debug	B
	push	bp
	mov	bp,sp
	push	ds
	mov	ax,DGROUP
	mov	ds,ax
	?debug	C F815405550495F64737973405374617274555049+
	?debug	C 247176
	?debug	C E604746869731802060000
	?debug	B
	cmp	word ptr __stklen,sp
	ja	short @6@86
	call	far ptr F_OVERFLOW@
@6@86:
   ;	
   ;	{
   ;	 return;
   ;	
	?debug	L 72
	jmp	short @6@114
@6@114:
   ;	
   ;	}
   ;	
	?debug	L 73
	pop	ds
	pop	bp
	ret	
	?debug	C E604746869731802060000
	?debug	E
	?debug	E
@UPI_dsys@StartUPI$qv	endp
   ;	
   ;	void UPI_dsys::StopUPI(void)
   ;	
	?debug	L 75
	assume	cs:DSYS_TEXT
@UPI_dsys@StopUPI$qv	proc	far
	?debug	B
	push	bp
	mov	bp,sp
	push	ds
	mov	ax,DGROUP
	mov	ds,ax
	?debug	C F814405550495F647379734053746F7055504924+
	?debug	C 7176
	?debug	C E604746869731802060000
	?debug	B
	cmp	word ptr __stklen,sp
	ja	short @7@86
	call	far ptr F_OVERFLOW@
@7@86:
   ;	
   ;	{
   ;	 return;
   ;	
	?debug	L 77
	jmp	short @7@114
@7@114:
   ;	
   ;	}
   ;	
	?debug	L 78
	pop	ds
	pop	bp
	ret	
	?debug	C E604746869731802060000
	?debug	E
	?debug	E
@UPI_dsys@StopUPI$qv	endp
   ;	
   ;	int UPI_dsys::BuildUPI(void)
   ;	
	?debug	L 81
	assume	cs:DSYS_TEXT
@UPI_dsys@BuildUPI$qv	proc	far
	?debug	B
	enter	2,0
	push	ds
	mov	ax,DGROUP
	mov	ds,ax
	?debug	C F815405550495F64737973404275696C64555049+
	?debug	C 247176
	?debug	C E604746869731802060000
	?debug	B
	cmp	word ptr __stklen,sp
	ja	short @8@86
	call	far ptr F_OVERFLOW@
@8@86:
   ;	
   ;	{
   ;	 int val=0;
   ;	
	?debug	L 83
	mov	word ptr [bp-2],0
   ;	
   ;	
   ;	 return val;
   ;	
	?debug	L 85
	mov	ax,word ptr [bp-2]
	jmp	short @8@114
@8@114:
   ;	
   ;	}
   ;	
	?debug	L 86
	pop	ds
	leave	
	ret	
	?debug	C E60376616C0402FEFF0004746869731802060000
	?debug	E
	?debug	E
@UPI_dsys@BuildUPI$qv	endp
   ;	
   ;	int UPI_dsys::CalcSignal(float *iBuf,float *oBuf)
   ;	
	?debug	L 88
	assume	cs:DSYS_TEXT
@UPI_dsys@CalcSignal$qnft1	proc	far
	?debug	B
	push	bp
	mov	bp,sp
	push	ds
	mov	ax,DGROUP
	mov	ds,ax
	?debug	C F81A405550495F647379734043616C635369676E+
	?debug	C 616C24716E667431
	?debug	C E321000400160E00
	?debug	C E6046F427566210A0E00000469427566210A0A00+
	?debug	C 0004746869731802060000
	?debug	B
	cmp	word ptr __stklen,sp
	ja	short @9@86
	call	far ptr F_OVERFLOW@
@9@86:
   ;	
   ;	{
   ;	
   ;	 return 0;
   ;	
	?debug	L 91
	xor	ax,ax
	jmp	short @9@114
@9@114:
   ;	
   ;	}
   ;	
	?debug	L 92
	pop	ds
	pop	bp
	ret	
	?debug	C E6047468697318020600000469427566210A0A00+
	?debug	C 00046F427566210A0E0000
	?debug	E
	?debug	E
@UPI_dsys@CalcSignal$qnft1	endp
   ;	
   ;	main(int argc, char *argv[])
   ;	
	?debug	L 95
	assume	cs:DSYS_TEXT
_main	proc	far
	?debug	B
	enter	12,0
	?debug	C E322000400161A00
	?debug	C E60461726776220A0800000461726763040A0600+
	?debug	C 00
	?debug	B
	cmp	word ptr __stklen,sp
	ja	short @10@86
	call	far ptr F_OVERFLOW@
@10@86:
   ;	
   ;	{
   ;	 UPI_dsys *Emul;
   ;	
   ;	 cout << "\nEmulator for UPI&External Object v1.10 (C) by"
   ;	
	?debug	L 99
   ;	
   ;	        " \"Samara-Trend\" 1994.\n";
   ;	
	?debug	L 100
	push	0
	push	0
	push	ds
	push	offset DGROUP:s@+141
	push	seg _cout
	push	offset _cout
	call	far ptr @ostream@outstr$qnxzct1
	add	sp,12
   ;	
   ;	
   ;	 if(_8087==0)  cout << "\007\007I can`t found hardware FPU, aborted.\n";
   ;	
	?debug	L 102
	mov	ax,seg __8087
	mov	es,ax
	cmp	word ptr es:__8087,0
	jne	short @10@142
	push	0
	push	0
	push	ds
	push	offset DGROUP:s@+210
	push	seg _cout
	push	offset _cout
	call	far ptr @ostream@outstr$qnxzct1
	add	sp,12
	jmp	@10@338
@10@142:
   ;	
   ;	 else if(argc>=3)
   ;	
	?debug	L 103
	cmp	word ptr [bp+6],3
	jge short	@@8
	jmp	@10@310
@@8:
   ;	
   ;	    {
   ;	    Emul=new UPI_dsys(argv[1],1);
   ;	
	?debug	L 105
	push	1
	les	bx,dword ptr [bp+8]
	push	word ptr es:[bx+6]
	push	word ptr es:[bx+4]
	push	0
	push	0
	push	cs
	call	near ptr @UPI_dsys@$bctr$qnzci
	add	sp,10
	mov	word ptr [bp-2],dx
	mov	word ptr [bp-4],ax
   ;	
   ;	    if(!Emul->DoLoop(&argv[2])) cout << "\nError: " << Emul->ErrMsg() << "\n";
   ;	
	?debug	L 106
	mov	ax,word ptr [bp+8]
	add	ax,8
	push	word ptr [bp+10]
	push	ax
	push	word ptr [bp-2]
	push	word ptr [bp-4]
	call	far ptr @UPI@DoLoop$qnnzc
	add	sp,8
	or	ax,ax
	jne	short @10@226
	push	0
	push	0
	push	ds
	push	offset DGROUP:s@+250
	push	seg _cout
	push	offset _cout
	call	far ptr @ostream@outstr$qnxzct1
	add	sp,12
	les	bx,dword ptr [bp-4]
	mov	eax,dword ptr es:[bx+42]
	mov	dword ptr [bp-8],eax
	push	0
	push	0
	push	word ptr [bp-6]
	push	word ptr [bp-8]
	push	seg _cout
	push	offset _cout
	call	far ptr @ostream@outstr$qnxzct1
	add	sp,12
	push	0
	push	0
	push	ds
	push	offset DGROUP:s@+69
	push	seg _cout
	push	offset _cout
	call	far ptr @ostream@outstr$qnxzct1
	add	sp,12
@10@226:
   ;	
   ;	    delete Emul;
   ;	
	?debug	L 107
	cmp	dword ptr [bp-4],large 0
	je	short @10@282
	push	3
	push	word ptr [bp-2]
	push	word ptr [bp-4]
	les	bx,dword ptr [bp-4]
	mov	bx,word ptr es:[bx]
	call	dword ptr [bx]
	add	sp,6
	jmp	short @10@282
@10@282:
   ;	
   ;	    }
   ;	
	?debug	L 108
	jmp	short @10@338
@10@310:
   ;	
   ;	 else cout << "\n Usage: " << argv[0] << "<CfgFile> <ExecProgramFile> [list of parameters for <ExecProgramFile> ]\n";
   ;	
	?debug	L 109
	push	0
	push	0
	push	ds
	push	offset DGROUP:s@+259
	push	seg _cout
	push	offset _cout
	call	far ptr @ostream@outstr$qnxzct1
	add	sp,12
	les	bx,dword ptr [bp+8]
	mov	eax,dword ptr es:[bx]
	mov	dword ptr [bp-12],eax
	push	0
	push	0
	push	word ptr [bp-10]
	push	word ptr [bp-12]
	push	seg _cout
	push	offset _cout
	call	far ptr @ostream@outstr$qnxzct1
	add	sp,12
	push	0
	push	0
	push	ds
	push	offset DGROUP:s@+269
	push	seg _cout
	push	offset _cout
	call	far ptr @ostream@outstr$qnxzct1
	add	sp,12
@10@338:
   ;	
   ;	
   ;	 return 0;
   ;	
	?debug	L 111
	xor	ax,ax
	jmp	short @10@366
@10@366:
   ;	
   ;	}
   ;	
	?debug	L 112
	leave	
	ret	
	?debug	C E323000400160200
	?debug	C E604456D756C1802FCFF000461726763040A0600+
	?debug	C 000461726776220A080000
	?debug	E
	?debug	E
_main	endp
DSYS_TEXT	ends
_DATA	segment word public use16 'DATA'
@UPI_dsys@	segment	virtual
@@UPI_dsys@	label	byte
	dd	@UPI_dsys@$bdtr$qv
	dd	@UPI_dsys@StartUPI$qv
	dd	@UPI_dsys@StopUPI$qv
	dd	@UPI_dsys@BuildUPI$qv
	dd	@UPI_dsys@CalcSignal$qnft1
	dd	@UPI_dsys@ShowConfig$qv
	dd	@UPI_dsys@LoadConfig$qm7istream
	dd	@UPI_dsys@ResetUPI$qv
	?debug	C E9
	?debug	C FA00000000
@UPI_dsys@	ends
_DATA	ends
_DATA	segment word public use16 'DATA'
s@	label	byte
	db	10
	db	218
	db	138
	db	160
	db	173
	db	160
	db	171
	db	194
	db	196
	db	196
	db	' '
	db	142
	db	175
	db	168
	db	225
	db	160
	db	173
	db	168
	db	165
	db	' '
	db	170
	db	160
	db	173
	db	160
	db	171
	db	160
	db	' ('
	db	225
	db	175
	db	168
	db	225
	db	174
	db	170
	db	' '
	db	167
	db	162
	db	165
	db	173
	db	236
	db	165
	db	162
	db	' + '
	db	175
	db	174
	db	172
	db	165
	db	229
	db	160
	db	') '
	db	196
	db	196
	db	196
	db	196
	db	196
	db	196
	db	196
	db	196
	db	196
	db	196
	db	196
	db	196
	db	196
	db	196
	db	196
	db	196
	db	10
	db	0
	db	192
	db	196
	db	196
	db	196
	db	196
	db	196
	db	193
	db	196
	db	196
	db	196
	db	196
	db	196
	db	196
	db	196
	db	196
	db	196
	db	196
	db	196
	db	196
	db	196
	db	196
	db	196
	db	196
	db	196
	db	196
	db	196
	db	196
	db	196
	db	196
	db	196
	db	196
	db	196
	db	196
	db	196
	db	196
	db	196
	db	196
	db	196
	db	196
	db	196
	db	196
	db	196
	db	196
	db	196
	db	196
	db	196
	db	196
	db	196
	db	196
	db	196
	db	196
	db	196
	db	196
	db	196
	db	196
	db	196
	db	196
	db	196
	db	196
	db	196
	db	196
	db	196
	db	196
	db	196
	db	196
	db	196
	db	196
	db	196
	db	10
	db	0
	db	10
	db	'Emulator for UPI&External Object v1.10 (C) by "Samara-Trend" '
	db	'1994.'
	db	10
	db	0
	db	7
	db	7
	db	'I can`t found hardware FPU, aborted.'
	db	10
	db	0
	db	10
	db	'Error: '
	db	0
	db	10
	db	' Usage: '
	db	0
	db	'<CfgFile> <ExecProgramFile> [list of parameters for <ExecProg'
	db	'ramFile> ]'
	db	10
	db	0
_DATA	ends
DSYS_TEXT	segment byte public use16 'CODE'
DSYS_TEXT	ends
	?debug	C E325055461626C652A002E06
	?debug	C ED00060000010400
	?debug	C E326000400162500
	?debug	C E3270000002D260401250016405461626C654024+
	?debug	C 6263747224716969756975697569
	?debug	C E3290000002D01040125000F405461626C654024+
	?debug	C 62647472247176
	?debug	C E32C0B4452565F5461626C655F544E001E23
	?debug	C E32E00000023040500
	?debug	C E32D000400162E00
	?debug	C E33000000023040500
	?debug	C E32F000400163000
	?debug	C E33200000023040500
	?debug	C E331000400163200
	?debug	C E33400000023040500
	?debug	C E333000400163400
	?debug	C E33600000023040500
	?debug	C E335000400163600
	?debug	C E33800000023040500
	?debug	C E337000400163800
	?debug	C E33A00000023040500
	?debug	C E339000400163A00
	?debug	C E33C00000023040500
	?debug	C E33B000400163C00
	?debug	C E33E00000023040500
	?debug	C E33D000400163E00
	?debug	C E34000000023040500
	?debug	C E33F000400164000
	?debug	C E34200000023040500
	?debug	C E341000400164200
	?debug	C E34400000023040500
	?debug	C E343000400164400
	?debug	C E34600000023040500
	?debug	C E345000400164600
	?debug	C E34800000023040500
	?debug	C E347000400164800
	?debug	C E34A00000023040500
	?debug	C E349000400164A00
	?debug	C E34C00000023040500
	?debug	C E34B000400164C00
	?debug	C E32B000400162C00
	?debug	C E34D0000002D2B0401250012405461626C654047+
	?debug	C 65745461626C65247176
	?debug	C E34F0000002D0104092500
	?debug	C E3510000002D0104092500
	?debug	C E3530000002D0E04092500
	?debug	C E3550000002D0404092500
	?debug	C E3570000002D0404092500
	?debug	C E3590000002D010401250018405461626C654053+
	?debug	C 65744472764572724D736724716E7A63
	?debug	C E35C00000023010700
	?debug	C E35B000400165C00
	?debug	C E35D000400160A00
	?debug	C E35E0000001A02
	?debug	C E35F0000001A02
	?debug	C E3600000001A02
	?debug	C E3610000002D010401250212405461626C654053+
	?debug	C 74617274555049247176
	?debug	C E3630000002D010401250411405461626C654053+
	?debug	C 746F70555049247176
	?debug	C E3650000002D040401250612405461626C654042+
	?debug	C 75696C64555049247176
	?debug	C E3670000002D040401250817405461626C654043+
	?debug	C 616C635369676E616C24716E667431
	?debug	C E3240355504930002E05
	?debug	C ED000500003804010600
	?debug	C E369000400162400
	?debug	C E36A0000002D69040124000F4055504940246263+
	?debug	C 74722471696969
	?debug	C E36C0000002D01040124000D4055504940246264+
	?debug	C 7472247176
	?debug	C E36E0000002D1A04092400
	?debug	C E3700000002D0404012400114055504940446F4C+
	?debug	C 6F6F7024716E6E7A63
	?debug	C E3720000002D0104012402104055504940537461+
	?debug	C 7274555049247176
	?debug	C E3740000002D01040124040F405550494053746F+
	?debug	C 70555049247176
	?debug	C E3760000002D0404012406104055504940427569+
	?debug	C 6C64555049247176
	?debug	C E3780000002D040401240815405550494043616C+
	?debug	C 635369676E616C24716E667431
	?debug	C E37A0000002D0404012400144055504940456E61+
	?debug	C 626C65447269766572247176
	?debug	C E37C0000002D0404012400154055504940446973+
	?debug	C 61626C65447269766572247176
	?debug	C E37E0000002D0104092400
	?debug	C E319085550495F6473797334002E01
	?debug	C ED000100004704010500
	?debug	C E380800000002D180401190015405550495F6473+
	?debug	C 797340246263747224716E7A6369
	?debug	C E380820000002D010401190012405550495F6473+
	?debug	C 7973402462647472247176
	?debug	C E380840000002D010401190215405550495F6473+
	?debug	C 7973405374617274555049247176
	?debug	C E380860000002D010401190414405550495F6473+
	?debug	C 79734053746F70555049247176
	?debug	C E380880000002D040401190615405550495F6473+
	?debug	C 7973404275696C64555049247176
	?debug	C E3808A0000002D04040119081A405550495F6473+
	?debug	C 79734043616C635369676E616C24716E667431
	?debug	C E3808C0000002D1C04091900
	?debug	C E3808E0000002D010401190A17405550495F6473+
	?debug	C 79734053686F77436F6E666967247176
	?debug	C E380900000002D040401190C1F405550495F6473+
	?debug	C 7973404C6F6164436F6E66696724716D37697374+
	?debug	C 7265616D
	?debug	C E380920000002D010401190E15405550495F6473+
	?debug	C 7973405265736574555049247176
	?debug	C E38094084E696C436C61737304002E07
	?debug	C ED00070000540400
	?debug	C E380950000002D01040180940019404E696C436C+
	?debug	C 617373405361766524716D376F73747265616D
	?debug	C E380970000002D01040180940219404E696C436C+
	?debug	C 617373404C6F616424716D376973747265616D
	?debug	C E380990000002D04040180940416404E696C436C+
	?debug	C 61737340476574506172616D24716E76
	?debug	C E3809B0000002D04040180940616404E696C436C+
	?debug	C 61737340536574506172616D24716E76
	?debug	C E3809D0000002D04040180940816404E696C436C+
	?debug	C 61737340506172616D53697A65247176
	?debug	C E3809F0000001A02
	?debug	C E31D074368616E6E656C0C002E03
	?debug	C ED000300005D04010700
	?debug	C E380A00000002D1C04011D0011404368616E6E65+
	?debug	C 6C402462637472247176
	?debug	C E380A20000002D0104011D0018404368616E6E65+
	?debug	C 6C405361766524716D376F73747265616D
	?debug	C E380A40000002D0104011D0218404368616E6E65+
	?debug	C 6C404C6F616424716D376973747265616D
	?debug	C E380A60000002D0404011D0011404368616E6E65+
	?debug	C 6C404275696C64247176
	?debug	C E380A80000002D0E04011D0010404368616E6E65+
	?debug	C 6C4043616C63247166
	?debug	C E380AB084E696C5A76656E6F0C002E08
	?debug	C ED000800006604010700
	?debug	C E380AC0000002D01040180AB0A12404E696C5A76+
	?debug	C 656E6F405265736574247176
	?debug	C E380AE0000002D0E040180AB0C11404E696C5A76+
	?debug	C 656E6F4043616C63247166
	?debug	C E380B00000002D04040180AB0E12404E696C5A76+
	?debug	C 656E6F404275696C64247176
	?debug	C E380B20000002D0E040980AB00
	?debug	C E380B40000002D04040180AB1016404E696C5A76+
	?debug	C 656E6F4055736572456E746572247176
	?debug	C E380B60000001A02
	?debug	C E380AA0004001680AB00
	?debug	C E380B803696F7328002E0A
	?debug	C ED000A0000700C00
	?debug	C E380B908696F5F7374617465020022000080FF7F+
	?debug	C 80AE
	?debug	C E380BB096F70656E5F6D6F6465020022000080FF+
	?debug	C 7F80B3
	?debug	C E380BD087365656B5F646972020022000080FF7F+
	?debug	C 80BB
	?debug	C E380BF0004001680B800
	?debug	C E380C00000002D80BF040180B8001740696F7340+
	?debug	C 246263747224716E3973747265616D627566
	?debug	C E380C20000002D01040180B8000D40696F734024+
	?debug	C 62647472247176
	?debug	C E380C40000002D06040980B800
	?debug	C E380C60000002D06040180B8000D40696F734066+
	?debug	C 6C61677324716C
	?debug	C E380C80000002D06040180B8000D40696F734073+
	?debug	C 65746624716C6C
	?debug	C E380CA0000002D06040180B8000C40696F734073+
	?debug	C 65746624716C
	?debug	C E380CC0000002D06040180B8000E40696F734075+
	?debug	C 6E7365746624716C
	?debug	C E380CE0000002D04040980B800
	?debug	C E380D00000002D04040980B800
	?debug	C E380D20000002D02040980B800
	?debug	C E380D40000002D02040980B800
	?debug	C E380D60000002D04040980B800
	?debug	C E380D80000002D04040980B800
	?debug	C E380DB076F73747265616D2C002E0B
	?debug	C ED000B020080BE0C010A80
	?debug	C E380DC0000002D80DA040180DB001B406F737472+
	?debug	C 65616D40246263747224716E3973747265616D62+
	?debug	C 7566
	?debug	C E380DE0000002D01040180DB0011406F73747265+
	?debug	C 616D402462647472247176
	?debug	C E380E00000002D80DA040180DB0011406F737472+
	?debug	C 65616D402462637472247169
	?debug	C E380E20000002D80DA040180DB0014406F737472+
	?debug	C 65616D4024626374722471696E7A63
	?debug	C E380E40000002D04040980DB00
	?debug	C E380E60000002D01040980DB00
	?debug	C E380E80004003580DB00
	?debug	C E380E90000002D80E8040180DB0011406F737472+
	?debug	C 65616D40666C757368247176
	?debug	C E380EB0000002D80E8040180DB0011406F737472+
	?debug	C 65616D407365656B7024716C
	?debug	C E380ED0000002D80E8040180DB001A406F737472+
	?debug	C 65616D407365656B7024716C387365656B5F6469+
	?debug	C 72
	?debug	C E380EF0000002D06040180DB0011406F73747265+
	?debug	C 616D4074656C6C70247176
	?debug	C E380F10000002D80E8040980DB00
	?debug	C E380F30000002D80E8040180DB0015406F737472+
	?debug	C 65616D40777269746524716E787A6369
	?debug	C E380F50000002D80E8040980DB00
	?debug	C E380F70000002D80E8040580DB0012406F737472+
	?debug	C 65616D4024626C736824717A63
	?debug	C E380F90000002D80E8040D80DB00
	?debug	C E380FB0000002D80E8040D80DB00
	?debug	C E380FD0000002D80E8040D80DB00
	?debug	C E380FF0000002D80E8040D80DB00
	?debug	C E381010000002D80E8040D80DB00
	?debug	C E381030000002D80E8040580DB0011406F737472+
	?debug	C 65616D4024626C736824716C
	?debug	C E381050000002D80E8040580DB0012406F737472+
	?debug	C 65616D4024626C73682471756C
	?debug	C E381070000002D80E8040D80DB00
	?debug	C E381090000002D80E8040D80DB00
	?debug	C E3810B0000002D80E8040580DB0011406F737472+
	?debug	C 65616D4024626C7368247167
	?debug	C E3810D0000002D80E8040D80DB00
	?debug	C E3810F0000002D80E8040D80DB00
	?debug	C E381110000002D80E8040580DB0012406F737472+
	?debug	C 65616D4024626C736824716E76
	?debug	C E381130000002D80E8040580DB001B406F737472+
	?debug	C 65616D4024626C736824716E3973747265616D62+
	?debug	C 7566
	?debug	C E381150000002D80E8040D80DB00
	?debug	C E381170000002D80E8040580DB001D406F737472+
	?debug	C 65616D4024626C736824716E716D33696F73246D+
	?debug	C 33696F73
	?debug	C E381190000002D04040180DB0013406F73747265+
	?debug	C 616D40646F5F6F706678247176
	?debug	C E3811B0000002D01040180DB0013406F73747265+
	?debug	C 616D40646F5F6F736678247176
	?debug	C E3811D0000002D80DA040180DB0011406F737472+
	?debug	C 65616D402462637472247176
	?debug	C E3811F0000002D01040180DB0017406F73747265+
	?debug	C 616D406F757473747224716E787A637431
	?debug	C E380DA0004001680DB00
	?debug	C E381210000002D80DA040180B8001340696F7340+
	?debug	C 74696524716E376F73747265616D
	?debug	C E381230000002D80DA040980B800
	?debug	C E381250000002D04040980B800
	?debug	C E381270000002D04040980B800
	?debug	C E381290000002D04040980B800
	?debug	C E3812B0000002D04040980B800
	?debug	C E3812D0000002D04040980B800
	?debug	C E3812F0000002D01040180B8000D40696F734063+
	?debug	C 6C656172247169
	?debug	C E38131000400160100
	?debug	C E381320000002D8131040980B800
	?debug	C E381340000002D04040D80B800
	?debug	C E381370973747265616D62756626002E0C
	?debug	C ED000C000080E10C00
	?debug	C E381380000002D81360401813700134073747265+
	?debug	C 616D627566402462637472247176
	?debug	C E3813A0000002D81360401813700164073747265+
	?debug	C 616D62756640246263747224716E7A6369
	?debug	C E3813C0000002D01040181370013407374726561+
	?debug	C 6D627566402462647472247176
	?debug	C E3813E0000002D81360401813702174073747265+
	?debug	C 616D6275664073657462756624716E7A6369
	?debug	C E381400000002D81360409813700
	?debug	C E381420000002D81360401813700184073747265+
	?debug	C 616D6275664073657462756624716E7A636969
	?debug	C E381440000002D040409813700
	?debug	C E381460000002D040409813700
	?debug	C E381480000002D040409813700
	?debug	C E3814A0000002D010409813700
	?debug	C E3814C0000002D04040181370016407374726561+
	?debug	C 6D62756640736765746E24716E7A6369
	?debug	C E3814E0000002D04040181370419407374726561+
	?debug	C 6D62756640646F5F736765746E24716E7A6369
	?debug	C E381500000002D04040181370617407374726561+
	?debug	C 6D62756640756E646572666C6F77247176
	?debug	C E381520000002D040409813700
	?debug	C E381540000002D04040181370817407374726561+
	?debug	C 6D62756640706261636B6661696C247169
	?debug	C E381560000002D040409813700
	?debug	C E381580000002D040409813700
	?debug	C E3815A0000002D04040181370017407374726561+
	?debug	C 6D62756640737075746E24716E787A6369
	?debug	C E3815C0000002D04040181370A1A407374726561+
	?debug	C 6D62756640646F5F737075746E24716E787A6369
	?debug	C E3815E0000002D04040181370C16407374726561+
	?debug	C 6D627566406F766572666C6F77247169
	?debug	C E381600000002D040409813700
	?debug	C E381620000002D06040181370E1F407374726561+
	?debug	C 6D627566407365656B6F666624716C387365656B+
	?debug	C 5F64697269
	?debug	C E381640000002D06040181371016407374726561+
	?debug	C 6D627566407365656B706F7324716C69
	?debug	C E381660000002D04040181371212407374726561+
	?debug	C 6D6275664073796E63247176
	?debug	C E381680000002D01040181370011407374726561+
	?debug	C 6D62756640646270247176
	?debug	C E3816A0000002D1A0409813700
	?debug	C E3816C0000002D1A0409813700
	?debug	C E3816E0000002D040409813700
	?debug	C E381700000002D1A0409813700
	?debug	C E381720000002D1A0409813700
	?debug	C E381740000002D1A0409813700
	?debug	C E381760000002D1A0409813700
	?debug	C E381780000002D1A0409813700
	?debug	C E3817A0000002D1A0409813700
	?debug	C E3817C0000002D01040181370016407374726561+
	?debug	C 6D627566407365747024716E7A637431
	?debug	C E3817E0000002D01040181370018407374726561+
	?debug	C 6D627566407365746724716E7A6374317431
	?debug	C E381800000002D010409813700
	?debug	C E381820000002D010409813700
	?debug	C E381840000002D01040181370017407374726561+
	?debug	C 6D627566407365746224716E7A63743169
	?debug	C E381860000002D010409813700
	?debug	C E381880000002D040409813700
	?debug	C E3818A0000002D040409813700
	?debug	C E3818C0000002D04040181371418407374726561+
	?debug	C 6D62756640646F616C6C6F63617465247176
	?debug	C E3818E0000002D04040181370017407374726561+
	?debug	C 6D62756640646F5F736E65787463247176
	?debug	C E381900000002D813604018137001D4073747265+
	?debug	C 616D62756640246263747224716D397374726561+
	?debug	C 6D627566
	?debug	C E381920000002D0104058137001D407374726561+
	?debug	C 6D62756640246261736724716D3973747265616D+
	?debug	C 627566
	?debug	C E3813600040016813700
	?debug	C E381940000002D8136040980B800
	?debug	C E381960000002D06040180B8001040696F734062+
	?debug	C 6974616C6C6F63247176
	?debug	C E381980000002D04040180B8000E40696F734078+
	?debug	C 616C6C6F63247176
	?debug	C E3819A000400350600
	?debug	C E3819B0000002D819A040180B8000D40696F7340+
	?debug	C 69776F7264247169
	?debug	C E3819D00040035813100
	?debug	C E3819E0000002D819D040180B8000D40696F7340+
	?debug	C 70776F7264247169
	?debug	C E381A00000002D01040180B8001740696F734073+
	?debug	C 796E635F776974685F737464696F247176
	?debug	C E381A20000002D04040180B8000C40696F734073+
	?debug	C 6B6970247169
	?debug	C E381A40000002D80BF040180B8000D40696F7340+
	?debug	C 2462637472247176
	?debug	C E381A60000002D01040180B8001640696F734069+
	?debug	C 6E697424716E3973747265616D627566
	?debug	C E381A80000002D01040180B8001040696F734073+
	?debug	C 65747374617465247169
	?debug	C E381AB00000023010400
	?debug	C E381AA0004001681AB00
	?debug	C E381AC000400160100
	?debug	C E381AD0000002D01040180B8001040696F734075+
	?debug	C 73657273697A65247169
	?debug	C E381AF0000002D80BF040180B8001140696F7340+
	?debug	C 246263747224716D33696F73
	?debug	C E381B10000002D01040580B8001140696F734024+
	?debug	C 6261736724716D33696F73
	?debug	C E380B70B6673747265616D6261736562002E09
	?debug	C ED00090200811B0C010A80
	?debug	C E381B30004001680B700
	?debug	C E381B40000002D81B3040180B700154066737472+
	?debug	C 65616D62617365402462637472247176
	?debug	C E381B60000002D81B3040180B7001A4066737472+
	?debug	C 65616D6261736540246263747224716E787A6369+
	?debug	C 69
	?debug	C E381B80000002D81B3040180B700154066737472+
	?debug	C 65616D62617365402462637472247169
	?debug	C E381BA0000002D81B3040180B700194066737472+
	?debug	C 65616D626173654024626374722471696E7A6369
	?debug	C E381BC0000002D01040180B70015406673747265+
	?debug	C 616D62617365402462647472247176
	?debug	C E381BE0000002D01040180B70019406673747265+
	?debug	C 616D62617365406F70656E24716E787A636969
	?debug	C E381C00000002D01040180B70016406673747265+
	?debug	C 616D6261736540617474616368247169
	?debug	C E381C20000002D01040180B70015406673747265+
	?debug	C 616D6261736540636C6F7365247176
	?debug	C E381C40000002D01040180B70019406673747265+
	?debug	C 616D626173654073657462756624716E7A6369
	?debug	C E381C70766696C6562756636002E0D
	?debug	C ED000D000081290C010C00
	?debug	C E381C80000002D81C6040181C700114066696C65+
	?debug	C 627566402462637472247176
	?debug	C E381CA0000002D81C6040181C700114066696C65+
	?debug	C 627566402462637472247169
	?debug	C E381CC0000002D81C6040181C700154066696C65+
	?debug	C 6275664024626374722471696E7A6369
	?debug	C E381CE0000002D81C6040181C700154066696C65+
	?debug	C 6275664024626374722471696E756369
	?debug	C E381D00000002D01040181C700114066696C6562+
	?debug	C 7566402462647472247176
	?debug	C E381D20000002D04040981C700
	?debug	C E381D40000002D04040981C700
	?debug	C E381D60000002D81C6040181C700154066696C65+
	?debug	C 627566406F70656E24716E787A636969
	?debug	C E381D80000002D81C6040981C700
	?debug	C E381DA0000002D81C6040181C700114066696C65+
	?debug	C 62756640636C6F7365247176
	?debug	C E381DC0000002D81C6040181C700124066696C65+
	?debug	C 62756640617474616368247169
	?debug	C E381DE0000002D04040181C70C144066696C6562+
	?debug	C 7566406F766572666C6F77247169
	?debug	C E381E00000002D04040181C706154066696C6562+
	?debug	C 756640756E646572666C6F77247176
	?debug	C E381E20000002D04040181C712104066696C6562+
	?debug	C 75664073796E63247176
	?debug	C E381E40000002D06040181C70E1D4066696C6562+
	?debug	C 7566407365656B6F666624716C387365656B5F64+
	?debug	C 697269
	?debug	C E381E60000002D8136040181C702154066696C65+
	?debug	C 6275664073657462756624716E7A6369
	?debug	C E381E80000002D04040181C700134066696C6562+
	?debug	C 7566406C6173745F6F70247176
	?debug	C E381EA0002001A02
	?debug	C E381C60004001681C700
	?debug	C E381EB0000002D81C6040980B700
	?debug	C E381ED0000002D01040180B70016406673747265+
	?debug	C 616D6261736540766572696679247169
	?debug	C E31F076973747265616D2E002E04
	?debug	C ED0004020081430C010A80
	?debug	C E381EF000400161F00
	?debug	C E381F00000002D81EF04011F001B406973747265+
	?debug	C 616D40246263747224716E3973747265616D6275+
	?debug	C 66
	?debug	C E381F20000002D0104011F001140697374726561+
	?debug	C 6D402462647472247176
	?debug	C E381F40000002D81EF04011F0025406973747265+
	?debug	C 616D40246263747224716E3973747265616D6275+
	?debug	C 66696E376F73747265616D
	?debug	C E381F60000002D81EF04011F0015406973747265+
	?debug	C 616D4024626374722471696E7A6369
	?debug	C E381F80000002D81EF04011F001B406973747265+
	?debug	C 616D402462637472247169696E376F7374726561+
	?debug	C 6D
	?debug	C E381FA0000002D0404011F001040697374726561+
	?debug	C 6D4069706678247169
	?debug	C E381FC0000002D0404091F00
	?debug	C E381FE0000002D0404091F00
	?debug	C E382000000002D0104091F00
	?debug	C E382020000002D1E04011F001140697374726561+
	?debug	C 6D407365656B6724716C
	?debug	C E382040000002D1E04011F001A40697374726561+
	?debug	C 6D407365656B6724716C387365656B5F646972
	?debug	C E382060000002D0604011F001140697374726561+
	?debug	C 6D4074656C6C67247176
	?debug	C E382080000002D0404091F00
	?debug	C E3820A0000002D1E04011F001440697374726561+
	?debug	C 6D4067657424716E7A63697A63
	?debug	C E3820C0000002D1E04091F00
	?debug	C E3820E0000002D1E04011F001340697374726561+
	?debug	C 6D407265616424716E7A6369
	?debug	C E382100000002D1E04091F00
	?debug	C E382120000002D1E04011F001840697374726561+
	?debug	C 6D406765746C696E6524716E7A63697A63
	?debug	C E382140000002D1E04091F00
	?debug	C E382160000002D1E04011F001B40697374726561+
	?debug	C 6D4067657424716D3973747265616D6275667A63
	?debug	C E382180000002D1E04011F001140697374726561+
	?debug	C 6D4067657424716D7563
	?debug	C E3821A0000002D1E04011F001140697374726561+
	?debug	C 6D4067657424716D7A63
	?debug	C E3821C0000002D0404011F000F40697374726561+
	?debug	C 6D40676574247176
	?debug	C E3821E0000002D0404091F00
	?debug	C E382200000002D0404091F00
	?debug	C E382220000002D1E04011F001440697374726561+
	?debug	C 6D407075746261636B24717A63
	?debug	C E382240000002D1E04011F001340697374726561+
	?debug	C 6D4069676E6F726524716969
	?debug	C E382260000002D1E040D1F00
	?debug	C E382280000002D1E04051F001D40697374726561+
	?debug	C 6D40246272736824716E716D33696F73246D3369+
	?debug	C 6F73
	?debug	C E3822A0000002D1E04051F001340697374726561+
	?debug	C 6D40246272736824716E7A63
	?debug	C E3822C0000002D1E040D1F00
	?debug	C E3822E0000002D1E04051F001340697374726561+
	?debug	C 6D40246272736824716D7563
	?debug	C E382300000002D1E04051F001340697374726561+
	?debug	C 6D40246272736824716D7A63
	?debug	C E382320000002D1E04051F001240697374726561+
	?debug	C 6D40246272736824716D73
	?debug	C E382340000002D1E04051F001240697374726561+
	?debug	C 6D40246272736824716D69
	?debug	C E382360000002D1E04051F001240697374726561+
	?debug	C 6D40246272736824716D6C
	?debug	C E382380000002D1E04051F001340697374726561+
	?debug	C 6D40246272736824716D7573
	?debug	C E3823A0000002D1E04051F001340697374726561+
	?debug	C 6D40246272736824716D7569
	?debug	C E3823C0000002D1E04051F001340697374726561+
	?debug	C 6D40246272736824716D756C
	?debug	C E3823E0000002D1E04051F001240697374726561+
	?debug	C 6D40246272736824716D66
	?debug	C E382400000002D1E04051F001240697374726561+
	?debug	C 6D40246272736824716D64
	?debug	C E382420000002D1E04051F001240697374726561+
	?debug	C 6D40246272736824716D67
	?debug	C E382440000002D1E04051F001B40697374726561+
	?debug	C 6D40246272736824716E3973747265616D627566
	?debug	C E382460000002D81EF04011F0011406973747265+
	?debug	C 616D402462637472247176
	?debug	C E382480000002D0104011F001440697374726561+
	?debug	C 6D406561747768697465247176
	?debug	C E3824A0000002D0204011F001240697374726561+
	?debug	C 6D40646F5F676574247176
	?debug	C E31B08696673747265616D68002E02
	?debug	C ED0002020081740C0209000400
	?debug	C E3824C000400161B00
	?debug	C E3824D0000002D824C04011B0012406966737472+
	?debug	C 65616D402462637472247176
	?debug	C E3824F0000002D824C04011B0017406966737472+
	?debug	C 65616D40246263747224716E787A636969
	?debug	C E382510000002D824C04011B0017406966737472+
	?debug	C 65616D40246263747224716E7875636969
	?debug	C E382530000002D824C04011B0012406966737472+
	?debug	C 65616D402462637472247169
	?debug	C E382550000002D824C04011B0016406966737472+
	?debug	C 65616D4024626374722471696E7A6369
	?debug	C E382570000002D824C04011B0016406966737472+
	?debug	C 65616D4024626374722471696E756369
	?debug	C E382590000002D0104011B001240696673747265+
	?debug	C 616D402462647472247176
	?debug	C E3825B0000002D81C604091B00
	?debug	C E3825D0000002D0104091B00
	?debug	C E3825F0000002D0104091B00
	extrn	__setargv__:far
	public	_main
	extrn	F_OVERFLOW@:far
	public	@UPI_dsys@ResetUPI$qv
	public	@UPI_dsys@LoadConfig$qm7istream
	public	@UPI_dsys@ShowConfig$qv
	public	@UPI_dsys@CalcSignal$qnft1
	public	@UPI_dsys@BuildUPI$qv
	public	@UPI_dsys@StopUPI$qv
	public	@UPI_dsys@StartUPI$qv
	public	@UPI_dsys@$bdtr$qv
	public	@UPI_dsys@$bctr$qnzci
	extrn	@Channel@$bctr$qv:far
	extrn	@UPI@DoLoop$qnnzc:far
	extrn	@UPI@$bdtr$qv:far
	extrn	@UPI@$bctr$qiii:far
	extrn	@Table@table:word
_pokeb	equ	pokeb
_poke	equ	poke
_peekb	equ	peekb
_peek	equ	peek
	extrn	__stklen:word
	extrn	__8087:word
	extrn	@ifstream@$bdtr$qv:far
	extrn	@ifstream@$bctr$qnxzcii:far
	extrn	@filebuf@openprot:word
	extrn	_cout:word
	extrn	@ostream@outstr$qnxzct1:far
	extrn	@istream@read$qnzci:far
	extrn	@$bdele$qnv:far
	extrn	@$bnew$qui:far
_s@	equ	s@
	?debug	C EA050C
	?debug	C E3826100000023040500
	?debug	C EB0B5F5F736574617267765F5F826100
	?debug	C E3826200000023040400
	?debug	C EC055F6D61696E82621800
	?debug	C EB0B465F4F564552464C4F5740826100
	?debug	C E3826300000023010400
	?debug	C E3826400000023010400
	?debug	C E3826500000023020400
	?debug	C E3826600000023040400
	?debug	C E382670666696E645F742B001E817F
	?debug	C E382680015001A02
	?debug	C E38269000D001A02
	?debug	C E3826A056666626C6B2B001E8186
	?debug	C E3826B0015001A02
	?debug	C E3826C000D001A02
	?debug	C E3826D075245475041434B14001E818D
	?debug	C E3826E05535245475308001E8198
	?debug	C E3826F045245475310001F819D
	?debug	C E3827008574F52445245475310001E81A0
	?debug	C E3827108425954455245475308001E81A9
	?debug	C E3827209646F73646174655F7405001E81B2
	?debug	C E38273046461746504001E81B7
	?debug	C E3827409646F7374696D655F7404001E81BB
	?debug	C E382750474696D6504001E81C0
	?debug	C E382760664657668647212001E81C5
	?debug	C E382770008001A02
	?debug	C E3827807666174696E666F06001E81CB
	?debug	C E382790A6469736B667265655F7408001E81D0
	?debug	C E3827A05646672656508001E81D5
	?debug	C E3827B08444F534552524F5205001E81DA
	?debug	C E3827C07434F554E54525922001E81DF
	?debug	C E3827D0005001A02
	?debug	C E3827E0002001A02
	?debug	C E3827F0002001A02
	?debug	C E382800002001A02
	?debug	C E382810002001A02
	?debug	C E382820002001A02
	?debug	C E38283000A001A02
	?debug	C E3828404786663622C001E81EC
	?debug	C E382850005001A02
	?debug	C E382860366636225001E81F1
	?debug	C E382870008001A02
	?debug	C E382880003001A02
	?debug	C E38289000A001A02
	?debug	C EB085F5F73746B6C656E0A00
	?debug	C EB065F5F383038370400
	?debug	C E3828B0E5472616E736665724F7363696C6C4600+
	?debug	C 2E0F
	?debug	C ED000F000081FC04010800
	?debug	C E3828C00040016828B00
	?debug	C E3828D0000002D828C0401828B0018405472616E+
	?debug	C 736665724F7363696C6C402462637472247176
	?debug	C E3828F0000001A02
	?debug	C E382900000002D010401828B0A18405472616E73+
	?debug	C 6665724F7363696C6C405265736574247176
	?debug	C E382920000002D0E0401828B0C17405472616E73+
	?debug	C 6665724F7363696C6C4043616C63247166
	?debug	C E382940000002D040401828B0E18405472616E73+
	?debug	C 6665724F7363696C6C404275696C64247176
	?debug	C E382960000002D040401828B061C405472616E73+
	?debug	C 6665724F7363696C6C40536574506172616D2471+
	?debug	C 6E76
	?debug	C E382980000002D040401828B081C405472616E73+
	?debug	C 6665724F7363696C6C40506172616D53697A6524+
	?debug	C 7176
	?debug	C E3829A0000002D040401828B041C405472616E73+
	?debug	C 6665724F7363696C6C40476574506172616D2471+
	?debug	C 6E76
	?debug	C E3829C0000002D040401828B101C405472616E73+
	?debug	C 6665724F7363696C6C4055736572456E74657224+
	?debug	C 7176
	?debug	C E3829E000C001A0E
	?debug	C E3829F000C001A0E
	?debug	C E382A0000C001A0E
	?debug	C E382A1000C001A0E
	?debug	C E3828A0D4453706565644F7363696C6C4146002E+
	?debug	C 0E
	?debug	C ED000E0000820E04010F00
	?debug	C E382A20000001A02
	?debug	C E382A30000002D0E0401828A0C16404453706565+
	?debug	C 644F7363696C6C414043616C63247166
	?debug	C E382A50000002D040401828A0E17404453706565+
	?debug	C 644F7363696C6C41404275696C64247176
	?debug	C E382A70C53706565644F7363696C6C4146002E10
	?debug	C ED00100000821204010F00
	?debug	C E382A80000001A02
	?debug	C E382A90000002D04040182A70E16405370656564+
	?debug	C 4F7363696C6C41404275696C64247176
	?debug	C E382AB0F5472616E736665724F7363696C6C4146+
	?debug	C 002E11
	?debug	C ED00110000821504010F00
	?debug	C E382AC0000001A02
	?debug	C E382AD0000002D04040182AB0E19405472616E73+
	?debug	C 6665724F7363696C6C41404275696C64247176
	?debug	C E382AF075F4F7363696C6C08001E8218
	?debug	C E382B10E53696E676C6546756E6374696F6E1000+
	?debug	C 2E13
	?debug	C ED00130000821B04010800
	?debug	C E382B20004001682B100
	?debug	C E382B30000002D82B2040182B100184053696E67+
	?debug	C 6C6546756E6374696F6E402462637472247176
	?debug	C E382B50000001A02
	?debug	C E382B60000002D0E040182B10C174053696E676C+
	?debug	C 6546756E6374696F6E4043616C63247166
	?debug	C E382B80000002D04040182B1061C4053696E676C+
	?debug	C 6546756E6374696F6E40536574506172616D2471+
	?debug	C 6E76
	?debug	C E382BA0000002D04040182B1081C4053696E676C+
	?debug	C 6546756E6374696F6E40506172616D53697A6524+
	?debug	C 7176
	?debug	C E382BC0000002D04040182B1041C4053696E676C+
	?debug	C 6546756E6374696F6E40476574506172616D2471+
	?debug	C 6E76
	?debug	C E382BE0000002D04040182B1101C4053696E676C+
	?debug	C 6546756E6374696F6E4055736572456E74657224+
	?debug	C 7176
	?debug	C E382B00C5371727446756E6374696F6E10002E12
	?debug	C ED00120000822504011300
	?debug	C E382C00000001A02
	?debug	C E382C10000002D0E040182B00C15405371727446+
	?debug	C 756E6374696F6E4043616C63247166
	?debug	C E382C30D466865726446756E6374696F6E10002E+
	?debug	C 14
	?debug	C ED00140000822804011300
	?debug	C E382C40000001A02
	?debug	C E382C50000002D0E040182C30C16404668657264+
	?debug	C 46756E6374696F6E4043616C63247166
	?debug	C E382C70E446F75626C6546756E6374696F6E1000+
	?debug	C 2E15
	?debug	C ED00150000822B04011300
	?debug	C E382C80000001A02
	?debug	C E382C90000002D0E040182C70C1740446F75626C+
	?debug	C 6546756E6374696F6E4043616C63247166
	?debug	C E382CB095F46756E6374696F6E04001E822E
	?debug	C E382CC0000002380E80400
	?debug	C E382CD000000231E0400
	?debug	C E382CF08696F73747265616D32002E17
	?debug	C ED0017020082300C0204000B00
	?debug	C E382D00004001682CF00
	?debug	C E382D10000002D82D0040182CF001C40696F7374+
	?debug	C 7265616D40246263747224716E3973747265616D+
	?debug	C 627566
	?debug	C E382D30000002D01040182CF001240696F737472+
	?debug	C 65616D402462647472247176
	?debug	C E382D50000002D82D0040182CF001240696F7374+
	?debug	C 7265616D402462637472247176
	?debug	C E382CE076673747265616D6C002E16
	?debug	C ED0016020082340C0209001700
	?debug	C E382D70004001682CE00
	?debug	C E382D80000002D82D7040182CE00114066737472+
	?debug	C 65616D402462637472247176
	?debug	C E382DA0000002D82D7040182CE00164066737472+
	?debug	C 65616D40246263747224716E787A636969
	?debug	C E382DC0000002D82D7040182CE00164066737472+
	?debug	C 65616D40246263747224716E7875636969
	?debug	C E382DE0000002D82D7040182CE00114066737472+
	?debug	C 65616D402462637472247169
	?debug	C E382E00000002D82D7040182CE00154066737472+
	?debug	C 65616D4024626374722471696E7A6369
	?debug	C E382E20000002D82D7040182CE00154066737472+
	?debug	C 65616D4024626374722471696E756369
	?debug	C E382E40000002D01040182CE0011406673747265+
	?debug	C 616D402462647472247176
	?debug	C E382E60000002D81C6040982CE00
	?debug	C E382E80000002D01040982CE00
	?debug	C E382EA0000002D01040982CE00
	?debug	C E382EC086F6673747265616D66002E18
	?debug	C ED00180200823F0C0209000B00
	?debug	C E382ED0004001682EC00
	?debug	C E382EE0000002D82ED040182EC0012406F667374+
	?debug	C 7265616D402462637472247176
	?debug	C E382F00000002D82ED040182EC0017406F667374+
	?debug	C 7265616D40246263747224716E787A636969
	?debug	C E382F20000002D82ED040182EC0017406F667374+
	?debug	C 7265616D40246263747224716E7875636969
	?debug	C E382F40000002D82ED040182EC0012406F667374+
	?debug	C 7265616D402462637472247169
	?debug	C E382F60000002D82ED040182EC0016406F667374+
	?debug	C 7265616D4024626374722471696E7A6369
	?debug	C E382F80000002D82ED040182EC0016406F667374+
	?debug	C 7265616D4024626374722471696E756369
	?debug	C E382FA0000002D01040182EC0012406F66737472+
	?debug	C 65616D402462647472247176
	?debug	C E382FC0000002D81C6040982EC00
	?debug	C E382FE0000002D01040982EC00
	?debug	C E383000000002D01040982EC00
	?debug	C E38302126F73747265616D5F7769746861737369+
	?debug	C 676E2C002E19
	?debug	C ED00190200824A0C010B00
	?debug	C E3830300040016830200
	?debug	C E383040000002D830304018302001C406F737472+
	?debug	C 65616D5F7769746861737369676E402462637472+
	?debug	C 247176
	?debug	C E383060000002D0104018302001C406F73747265+
	?debug	C 616D5F7769746861737369676E40246264747224+
	?debug	C 7176
	?debug	C E3830800040035830200
	?debug	C E383090000002D8308040583020024406F737472+
	?debug	C 65616D5F7769746861737369676E402462617367+
	?debug	C 24716D376F73747265616D
	?debug	C E3830B0000002D8308040583020026406F737472+
	?debug	C 65616D5F7769746861737369676E402462617367+
	?debug	C 24716E3973747265616D627566
	?debug	C EB055F636F7574830200
	?debug	C E3830D13696F73747265616D5F77697468617373+
	?debug	C 69676E32002E1A
	?debug	C ED001A0200824F0C011700
	?debug	C E3830E00040016830D00
	?debug	C E3830F0000002D830E0401830D001D40696F7374+
	?debug	C 7265616D5F7769746861737369676E4024626374+
	?debug	C 72247176
	?debug	C E383110000002D010401830D001D40696F737472+
	?debug	C 65616D5F7769746861737369676E402462647472+
	?debug	C 247176
	?debug	C E3831300040035830D00
	?debug	C E383140000002D83130405830D002140696F7374+
	?debug	C 7265616D5F7769746861737369676E4024626173+
	?debug	C 6724716D33696F73
	?debug	C E383160000002D83130405830D002740696F7374+
	?debug	C 7265616D5F7769746861737369676E4024626173+
	?debug	C 6724716E3973747265616D627566
	?debug	C E38318126973747265616D5F7769746861737369+
	?debug	C 676E2E002E1B
	?debug	C ED001B020082540C010400
	?debug	C E3831900040016831800
	?debug	C E3831A0000002D831904018318001C4069737472+
	?debug	C 65616D5F7769746861737369676E402462637472+
	?debug	C 247176
	?debug	C E3831C0000002D0104018318001C406973747265+
	?debug	C 616D5F7769746861737369676E40246264747224+
	?debug	C 7176
	?debug	C E3831E00040035831800
	?debug	C E3831F0000002D831E0405831800244069737472+
	?debug	C 65616D5F7769746861737369676E402462617367+
	?debug	C 24716D376973747265616D
	?debug	C E383210000002D831E0405831800264069737472+
	?debug	C 65616D5F7769746861737369676E402462617367+
	?debug	C 24716E3973747265616D627566
	?debug	C E3832300000023010400
	?debug	C EB0B40246264656C6524716E76832300
	?debug	C E383240000002381310400
	?debug	C EB0A4024626E657724717569832400
	?debug	C E60B4452565F5461626C655F502B06000B445256+
	?debug	C 5F5461626C655F542C060007486F6F6B5074725B+
	?debug	C 060004576F72640A060008506673747265616D82+
	?debug	C D7060009506F6673747265616D82ED0600095069+
	?debug	C 6673747265616D824C06000C506673747265616D+
	?debug	C 6261736581B30600085066696C6562756681C606+
	?debug	C 001452696F73747265616D5F7769746861737369+
	?debug	C 676E831306001450696F73747265616D5F776974+
	?debug	C 6861737369676E830E060013526F73747265616D+
	?debug	C 5F7769746861737369676E8308060013506F7374+
	?debug	C 7265616D5F7769746861737369676E8303060013+
	?debug	C 526973747265616D5F7769746861737369676E83+
	?debug	C 1E060013506973747265616D5F77697468617373+
	?debug	C 69676E831906000950696F73747265616D82D006+
	?debug	C 0008526F73747265616D80E8060008506F737472+
	?debug	C 65616D80DA060008526973747265616D1E060008+
	?debug	C 506973747265616D81EF06000A5073747265616D+
	?debug	C 627566813606000450696F7380BF060009737472+
	?debug	C 65616D6F66660606000973747265616D706F7306+
	?debug	C 06000673697A655F740A06000970747264696666+
	?debug	C 5F74060600085550495F64737973190700074368+
	?debug	C 616E6E656C1D070003555049240700055461626C+
	?debug	C 652507000666696E645F7482670700056666626C+
	?debug	C 6B826A0700075245475041434B826D0700055352+
	?debug	C 454753826E07000452454753826F070008425954+
	?debug	C 45524547538271070008574F5244524547538270+
	?debug	C 070009646F73646174655F748272070004646174+
	?debug	C 658273070009646F7374696D655F748274070004+
	?debug	C 74696D6582750700066465766864728276070007+
	?debug	C 666174696E666F827807000A6469736B66726565+
	?debug	C 5F7482790700056466726565827A070008444F53+
	?debug	C 4552524F52827B070007434F554E545259827C07+
	?debug	C 0004786663628284070003666362828607000D44+
	?debug	C 53706565644F7363696C6C41828A07000C537065+
	?debug	C 65644F7363696C6C4182A707000F5472616E7366+
	?debug	C 65724F7363696C6C4182AB07000E5472616E7366+
	?debug	C 65724F7363696C6C828B0700075F4F7363696C6C+
	?debug	C 82AF07000C5371727446756E6374696F6E82B007+
	?debug	C 000D466865726446756E6374696F6E82C307000E+
	?debug	C 446F75626C6546756E6374696F6E82C707000E53+
	?debug	C 696E676C6546756E6374696F6E82B10700095F46+
	?debug	C 756E6374696F6E82CB0700084E696C5A76656E6F+
	?debug	C 80AB0700084E696C436C61737380940700076673+
	?debug	C 747265616D82CE0700086F6673747265616D82EC+
	?debug	C 070008696673747265616D1B07000B6673747265+
	?debug	C 616D6261736580B707000766696C6562756681C7+
	?debug	C 07000E696F735F757365725F756E696F6E010700+
	?debug	C 13696F73747265616D5F7769746861737369676E+
	?debug	C 830D0700126F73747265616D5F77697468617373+
	?debug	C 69676E83020700126973747265616D5F77697468+
	?debug	C 61737369676E8318070008696F73747265616D82+
	?debug	C CF0700076F73747265616D80DB07000769737472+
	?debug	C 65616D1F07000973747265616D62756681370700+
	?debug	C 03696F7380B80700
	?debug	F pokeb 611 24 0
	?debug	F poke 612 24 0
	?debug	F peekb 613 24 0
	?debug	F peek 614 24 0
	?debug	F @$blsh$qm7ostreamn8NilClass 716 24 0
	?debug	F @$brsh$qm7istreamn8NilClass 717 24 0
	?debug	C E24A16405461626C654024626374722471696975+
	?debug	C 6975697569274D0F405461626C65402462647472+
	?debug	C 247176294812405461626C65404765745461626C+
	?debug	C 652471764D4816405461626C654053657454626C+
	?debug	C 4163746976652471764F4817405461626C654053+
	?debug	C 657454626C506173736976652471765148154054+
	?debug	C 61626C6540476574576F726B4672657124717653+
	?debug	C 4814405461626C6540476574576F726B44414324+
	?debug	C 7176554814405461626C6540476574576F726B41+
	?debug	C 4443247176574818405461626C65405365744472+
	?debug	C 764572724D736724716E7A635940020000000008+
	?debug	C 486F6F6B46756E635B600A405461626C65405462+
	?debug	C 6C26000852616E67654441430A000852616E6765+
	?debug	C 4144430A00074D6178467265710A000642756644+
	?debug	C 41435D00064275664144435D0006546D70444143+
	?debug	C 210006546D70414443210004467265710E00064D+
	?debug	C 61784441430400064D6178414443040006416374+
	?debug	C 4441430400064163744144430400075761697446+
	?debug	C 6C6704600C405461626C65407461626C652C600E+
	?debug	C 405461626C65405461626C6549445E6010405461+
	?debug	C 626C6540436F707972696768745F600E40546162+
	?debug	C 6C65404E616D65445256604C12405461626C6540+
	?debug	C 5374617274555049247176614C11405461626C65+
	?debug	C 4053746F70555049247176634C12405461626C65+
	?debug	C 404275696C64555049247176654C17405461626C+
	?debug	C 654043616C635369676E616C24716E66743167C0+
	?debug	C 2A000000
	?debug	C E2000776657273696F6E0400075461626C654944+
	?debug	C 1A0009436F707972696768741A00074E616D6544+
	?debug	C 52561A00075F456E61626C652D00085F44697361+
	?debug	C 626C652F000A5F476574566F6C41444331000A5F+
	?debug	C 536574566F6C4441433300085F536574486F6F6B+
	?debug	C 3500085F436C72486F6F6B3700075F566F6C756D+
	?debug	C 653900075F4765744275663B000C5F5761697444+
	?debug	C 41435F4144433D000B5F5365744368616E6E656C+
	?debug	C 3F000B5F436C72536B697070656441000B5F4765+
	?debug	C 74536B697070656443000B5F4765744D61784672+
	?debug	C 657145000E5F4765744D61784368616E6E656C47+
	?debug	C 000B5F476574496E666F44414349000B5F476574+
	?debug	C 496E666F4144434BC04E000000
	?debug	C E24A0F4055504940246263747224716969696A4D+
	?debug	C 0D405550494024626474722471766C480E405550+
	?debug	C 49404572724D73672471766E4811405550494044+
	?debug	C 6F4C6F6F7024716E6E7A63704C10405550494053+
	?debug	C 74617274555049247176724C0F40555049405374+
	?debug	C 6F70555049247176744C1040555049404275696C+
	?debug	C 64555049247176764C15405550494043616C6353+
	?debug	C 69676E616C24716E66743178402A000000000345+
	?debug	C 72721A000573746174650448144055504940456E+
	?debug	C 61626C654472697665722471767A481540555049+
	?debug	C 4044697361626C654472697665722471767C4812+
	?debug	C 40555049405365744572726F7224716E7A637EC0+
	?debug	C 30000000
	?debug	C E24A15405550495F647379734024626374722471+
	?debug	C 6E7A636980804D12405550495F64737973402462+
	?debug	C 64747224717680824C15405550495F6473797340+
	?debug	C 537461727455504924717680844C14405550495F+
	?debug	C 647379734053746F7055504924717680864C1540+
	?debug	C 5550495F64737973404275696C64555049247176+
	?debug	C 80884C1A405550495F647379734043616C635369+
	?debug	C 676E616C24716E667431808A4818405550495F64+
	?debug	C 737973404765744368616E6E656C73247176808C+
	?debug	C 4C17405550495F647379734053686F77436F6E66+
	?debug	C 6967247176808E4C1F405550495F64737973404C+
	?debug	C 6F6164436F6E66696724716D376973747265616D+
	?debug	C 80904C15405550495F6473797340526573657455+
	?debug	C 50492471768092403000000000035074721CC034+
	?debug	C 000000
	?debug	C E24C19404E696C436C617373405361766524716D+
	?debug	C 376F73747265616D80954C19404E696C436C6173+
	?debug	C 73404C6F616424716D376973747265616D80974C+
	?debug	C 16404E696C436C61737340476574506172616D24+
	?debug	C 716E7680994C16404E696C436C61737340536574+
	?debug	C 506172616D24716E76809B4C16404E696C436C61+
	?debug	C 737340506172616D53697A65247176809D400200+
	?debug	C 000000064572724F626A046011404E696C436C61+
	?debug	C 7373404E696B4E616D65809FC004000000
	?debug	C E24A11404368616E6E656C402462637472247176+
	?debug	C 80A04C18404368616E6E656C405361766524716D+
	?debug	C 376F73747265616D80A24C18404368616E6E656C+
	?debug	C 404C6F616424716D376973747265616D80A44811+
	?debug	C 404368616E6E656C404275696C6424717680A648+
	?debug	C 10404368616E6E656C4043616C6324716680A840+
	?debug	C 0400000000046E6578741C000350747280AAC00C+
	?debug	C 000000
	?debug	C E24C12404E696C5A76656E6F4052657365742471+
	?debug	C 7680AC4C11404E696C5A76656E6F4043616C6324+
	?debug	C 716680AE4C12404E696C5A76656E6F404275696C+
	?debug	C 6424717680B04813404E696C5A76656E6F404275+
	?debug	C 696C6424716E7680B24C16404E696C5A76656E6F+
	?debug	C 4055736572456E74657224717680B44004000000+
	?debug	C 000464656C740E00046E65787480AA6011404E69+
	?debug	C 6C5A76656E6F404E696B4E616D6580B6C00C0000+
	?debug	C 00
	?debug	C E27008696F5F737461746580B970096F70656E5F+
	?debug	C 6D6F646580BB70087365656B5F64697280BD600E+
	?debug	C 40696F7340626173656669656C6406601040696F+
	?debug	C 734061646A7573746669656C6406600F40696F73+
	?debug	C 40666C6F61746669656C64064A1740696F734024+
	?debug	C 6263747224716E3973747265616D62756680C04D+
	?debug	C 0D40696F7340246264747224717680C2480D4069+
	?debug	C 6F7340666C61677324717680C4480D40696F7340+
	?debug	C 666C61677324716C80C6480D40696F7340736574+
	?debug	C 6624716C6C80C8480C40696F7340736574662471+
	?debug	C 6C80CA480E40696F7340756E7365746624716C80+
	?debug	C CC480D40696F7340776964746824717680CE480D+
	?debug	C 40696F7340776964746824716980D0480C40696F+
	?debug	C 734066696C6C24717680D2480D40696F73406669+
	?debug	C 6C6C24717A6380D4481140696F73407072656369+
	?debug	C 73696F6E24716980D6481140696F734070726563+
	?debug	C 6973696F6E24717680D8481340696F7340746965+
	?debug	C 24716E376F73747265616D8121480B40696F7340+
	?debug	C 7469652471768123480F40696F73407264737461+
	?debug	C 74652471768125480B40696F7340656F66247176+
	?debug	C 8127480C40696F73406661696C2471768129480B+
	?debug	C 40696F7340626164247176812B480C40696F7340+
	?debug	C 676F6F64247176812D480D40696F7340636C6561+
	?debug	C 72247169812F4B0C40696F7340246F6E76247176+
	?debug	C 8132480D40696F734024626E6F74247176813448+
	?debug	C 0D40696F73407264627566247176819448104069+
	?debug	C 6F7340626974616C6C6F632471768196480E4069+
	?debug	C 6F734078616C6C6F632471768198480D40696F73+
	?debug	C 4069776F7264247169819B480D40696F73407077+
	?debug	C 6F7264247169819E481740696F734073796E635F+
	?debug	C 776974685F737464696F24717681A0480C40696F+
	?debug	C 7340736B697024716981A2400200000000026270+
	?debug	C 81360005785F74696580DA000573746174650400+
	?debug	C 08697370656369616C0400086F7370656369616C+
	?debug	C 040007785F666C61677306000B785F7072656369+
	?debug	C 73696F6E040007785F7769647468040006785F66+
	?debug	C 696C6C04000C697366785F7370656369616C0400+
	?debug	C 0C6F7366785F7370656369616C04000664656C62+
	?debug	C 756604000E61737369676E5F7072697661746504+
	?debug	C 4A0D40696F7340246263747224717681A4481640+
	?debug	C 696F7340696E697424716E3973747265616D6275+
	?debug	C 6681A6481040696F734073657473746174652471+
	?debug	C 6981A8600F40696F7340737464696F666C757368+
	?debug	C 81AA600C40696F73406E65787462697406600E40+
	?debug	C 696F734075736572636F756E7404000975736572+
	?debug	C 776F72647381AC00066E776F7264730448104069+
	?debug	C 6F73407573657273697A6524716981AD4A114069+
	?debug	C 6F7340246263747224716D33696F7381AF481140+
	?debug	C 696F7340246261736724716D33696F7381B1C028+
	?debug	C 000000
	?debug	C E4000C40696F7340676F6F646269740000000B40+
	?debug	C 696F7340656F666269740100000C40696F734066+
	?debug	C 61696C6269740200000B40696F73406261646269+
	?debug	C 740400800D40696F7340686172646661696C8000
	?debug	C E4000740696F7340696E0100000840696F73406F+
	?debug	C 75740200000840696F7340617465040000084069+
	?debug	C 6F73406170700800000A40696F73407472756E63+
	?debug	C 1000000D40696F73406E6F637265617465200000+
	?debug	C 0E40696F73406E6F7265706C6163654000800B40+
	?debug	C 696F734062696E6172798000
	?debug	C E4000840696F73406265670000000840696F7340+
	?debug	C 6375720100800840696F7340656E640200
	?debug	C E24A1B406F73747265616D40246263747224716E+
	?debug	C 3973747265616D62756680DC4D11406F73747265+
	?debug	C 616D40246264747224717680DE4A11406F737472+
	?debug	C 65616D40246263747224716980E04A14406F7374+
	?debug	C 7265616D4024626374722471696E7A6380E24810+
	?debug	C 406F73747265616D406F70667824717680E44810+
	?debug	C 406F73747265616D406F73667824717680E64811+
	?debug	C 406F73747265616D40666C75736824717680E948+
	?debug	C 11406F73747265616D407365656B7024716C80EB+
	?debug	C 481A406F73747265616D407365656B7024716C38+
	?debug	C 7365656B5F64697280ED4811406F73747265616D+
	?debug	C 4074656C6C7024717680EF4810406F7374726561+
	?debug	C 6D4070757424717A6380F14815406F7374726561+
	?debug	C 6D40777269746524716E787A636980F34815406F+
	?debug	C 73747265616D40777269746524716E7875636980+
	?debug	C F54812406F73747265616D4024626C736824717A+
	?debug	C 6380F74812406F73747265616D4024626C736824+
	?debug	C 71756380F94811406F73747265616D4024626C73+
	?debug	C 6824717380FB4812406F73747265616D4024626C+
	?debug	C 73682471757380FD4811406F73747265616D4024+
	?debug	C 626C736824716980FF4812406F73747265616D40+
	?debug	C 24626C73682471756981014811406F7374726561+
	?debug	C 6D4024626C736824716C81034812406F73747265+
	?debug	C 616D4024626C73682471756C81054811406F7374+
	?debug	C 7265616D4024626C736824716681074811406F73+
	?debug	C 747265616D4024626C736824716481094811406F+
	?debug	C 73747265616D4024626C7368247167810B481440+
	?debug	C 6F73747265616D4024626C736824716E787A6381+
	?debug	C 0D4814406F73747265616D4024626C736824716E+
	?debug	C 787563810F4812406F73747265616D4024626C73+
	?debug	C 6824716E768111481B406F73747265616D402462+
	?debug	C 6C736824716E3973747265616D62756681134825+
	?debug	C 406F73747265616D4024626C736824716E716D37+
	?debug	C 6F73747265616D246D376F73747265616D811548+
	?debug	C 1D406F73747265616D4024626C736824716E716D+
	?debug	C 33696F73246D33696F7381174813406F73747265+
	?debug	C 616D40646F5F6F70667824717681194813406F73+
	?debug	C 747265616D40646F5F6F736678247176811B4A11+
	?debug	C 406F73747265616D402462637472247176811D48+
	?debug	C 17406F73747265616D406F757473747224716E78+
	?debug	C 7A637431811FC02C000000
	?debug	C E24A134073747265616D62756640246263747224+
	?debug	C 717681384A164073747265616D62756640246263+
	?debug	C 747224716E7A6369813A4D134073747265616D62+
	?debug	C 7566402462647472247176813C4C174073747265+
	?debug	C 616D6275664073657462756624716E7A6369813E+
	?debug	C 48174073747265616D6275664073657462756624+
	?debug	C 716E756369814048184073747265616D62756640+
	?debug	C 73657462756624716E7A63696981424813407374+
	?debug	C 7265616D62756640736765746324717681444814+
	?debug	C 4073747265616D62756640736E65787463247176+
	?debug	C 814648144073747265616D627566407362756D70+
	?debug	C 63247176814848144073747265616D6275664073+
	?debug	C 746F737363247176814A48164073747265616D62+
	?debug	C 756640736765746E24716E7A6369814C4C194073+
	?debug	C 747265616D62756640646F5F736765746E24716E+
	?debug	C 7A6369814E4C174073747265616D62756640756E+
	?debug	C 646572666C6F7724717681504818407374726561+
	?debug	C 6D62756640737075746261636B6324717A638152+
	?debug	C 4C174073747265616D62756640706261636B6661+
	?debug	C 696C247169815448164073747265616D62756640+
	?debug	C 696E5F617661696C247176815648134073747265+
	?debug	C 616D627566407370757463247169815848174073+
	?debug	C 747265616D62756640737075746E24716E787A63+
	?debug	C 69815A4C1A4073747265616D62756640646F5F73+
	?debug	C 7075746E24716E787A6369815C4C164073747265+
	?debug	C 616D627566406F766572666C6F77247169815E48+
	?debug	C 194073747265616D627566406F75745F77616974+
	?debug	C 696E6724717681604C1F4073747265616D627566+
	?debug	C 407365656B6F666624716C387365656B5F646972+
	?debug	C 6981624C164073747265616D627566407365656B+
	?debug	C 706F7324716C6981644C124073747265616D6275+
	?debug	C 664073796E63247176816648114073747265616D+
	?debug	C 6275664064627024717681684812407374726561+
	?debug	C 6D6275664062617365247176816A481240737472+
	?debug	C 65616D6275664065627566247176816C48124073+
	?debug	C 747265616D62756640626C656E247176816E4813+
	?debug	C 4073747265616D62756640706261736524717681+
	?debug	C 7048124073747265616D62756640707074722471+
	?debug	C 76817248134073747265616D6275664065707074+
	?debug	C 72247176817448134073747265616D6275664065+
	?debug	C 6261636B247176817648124073747265616D6275+
	?debug	C 664067707472247176817848134073747265616D+
	?debug	C 627566406567707472247176817A481640737472+
	?debug	C 65616D627566407365747024716E7A637431817C+
	?debug	C 48184073747265616D627566407365746724716E+
	?debug	C 7A6374317431817E48134073747265616D627566+
	?debug	C 407062756D70247169818048134073747265616D+
	?debug	C 627566406762756D702471698182481740737472+
	?debug	C 65616D627566407365746224716E7A6374316981+
	?debug	C 8448184073747265616D62756640756E62756666+
	?debug	C 65726564247169818648184073747265616D6275+
	?debug	C 6640756E62756666657265642471768188481640+
	?debug	C 73747265616D62756640616C6C6F636174652471+
	?debug	C 76818A4C184073747265616D62756640646F616C+
	?debug	C 6C6F63617465247176818C40020000000006616C+
	?debug	C 6C6F635F040006756E6275665F04000562617365+
	?debug	C 5F1A0005656275665F1A000670626173655F1A00+
	?debug	C 05707074725F1A000665707074725F1A00066562+
	?debug	C 61636B5F1A0005677074725F1A00066567707472+
	?debug	C 5F1A48174073747265616D62756640646F5F736E+
	?debug	C 65787463247176818E4A1D4073747265616D6275+
	?debug	C 6640246263747224716D3973747265616D627566+
	?debug	C 8190481D4073747265616D627566402462617367+
	?debug	C 24716D3973747265616D6275668192C026000000
	?debug	C E24A15406673747265616D626173654024626374+
	?debug	C 7224717681B44A1A406673747265616D62617365+
	?debug	C 40246263747224716E787A63696981B64A154066+
	?debug	C 73747265616D6261736540246263747224716981+
	?debug	C B84A19406673747265616D626173654024626374+
	?debug	C 722471696E7A636981BA4D15406673747265616D+
	?debug	C 6261736540246264747224717681BC4819406673+
	?debug	C 747265616D62617365406F70656E24716E787A63+
	?debug	C 696981BE4816406673747265616D626173654061+
	?debug	C 747461636824716981C04815406673747265616D+
	?debug	C 6261736540636C6F736524717681C24819406673+
	?debug	C 747265616D626173654073657462756624716E7A+
	?debug	C 636981C44815406673747265616D626173654072+
	?debug	C 6462756624717681EB4816406673747265616D62+
	?debug	C 6173654076657269667924716981ED4004000000+
	?debug	C 000362756681C7C062000000
	?debug	C E260114066696C65627566406F70656E70726F74+
	?debug	C 044A114066696C65627566402462637472247176+
	?debug	C 81C84A114066696C656275664024626374722471+
	?debug	C 6981CA4A154066696C6562756640246263747224+
	?debug	C 71696E7A636981CC4A154066696C656275664024+
	?debug	C 626374722471696E75636981CE4D114066696C65+
	?debug	C 62756640246264747224717681D048134066696C+
	?debug	C 656275664069735F6F70656E24717681D2480E40+
	?debug	C 66696C6562756640666424717681D44815406669+
	?debug	C 6C65627566406F70656E24716E787A63696981D6+
	?debug	C 48154066696C65627566406F70656E24716E7875+
	?debug	C 63696981D848114066696C6562756640636C6F73+
	?debug	C 6524717681DA48124066696C6562756640617474+
	?debug	C 61636824716981DC4C144066696C65627566406F+
	?debug	C 766572666C6F7724716981DE4C154066696C6562+
	?debug	C 756640756E646572666C6F7724717681E04C1040+
	?debug	C 66696C656275664073796E6324717681E24C1D40+
	?debug	C 66696C65627566407365656B6F666624716C3873+
	?debug	C 65656B5F6469726981E44C154066696C65627566+
	?debug	C 4073657462756624716E7A636981E64026000000+
	?debug	C 00037866640400046D6F64650400066F70656E65+
	?debug	C 640400096C6173745F7365656B060008696E5F73+
	?debug	C 746172741A48134066696C65627566406C617374+
	?debug	C 5F6F7024717681E800066C616865616481EAC036+
	?debug	C 000000
	?debug	C E24A1B406973747265616D40246263747224716E+
	?debug	C 3973747265616D62756681F04D11406973747265+
	?debug	C 616D40246264747224717681F24A254069737472+
	?debug	C 65616D40246263747224716E3973747265616D62+
	?debug	C 7566696E376F73747265616D81F44A1540697374+
	?debug	C 7265616D4024626374722471696E7A636981F64A+
	?debug	C 1B406973747265616D402462637472247169696E+
	?debug	C 376F73747265616D81F84810406973747265616D+
	?debug	C 406970667824716981FA4811406973747265616D+
	?debug	C 40697066783024717681FC481140697374726561+
	?debug	C 6D40697066783124717681FE4810406973747265+
	?debug	C 616D406973667824717682004811406973747265+
	?debug	C 616D407365656B6724716C8202481A4069737472+
	?debug	C 65616D407365656B6724716C387365656B5F6469+
	?debug	C 7282044811406973747265616D4074656C6C6724+
	?debug	C 717682064810406973747265616D4073796E6324+
	?debug	C 717682084814406973747265616D406765742471+
	?debug	C 6E7A63697A63820A4814406973747265616D4067+
	?debug	C 657424716E7563697A63820C4813406973747265+
	?debug	C 616D407265616424716E7A6369820E4813406973+
	?debug	C 747265616D407265616424716E75636982104818+
	?debug	C 406973747265616D406765746C696E6524716E7A+
	?debug	C 63697A6382124818406973747265616D40676574+
	?debug	C 6C696E6524716E7563697A638214481B40697374+
	?debug	C 7265616D4067657424716D3973747265616D6275+
	?debug	C 667A6382164811406973747265616D4067657424+
	?debug	C 716D756382184811406973747265616D40676574+
	?debug	C 24716D7A63821A480F406973747265616D406765+
	?debug	C 74247176821C4810406973747265616D40706565+
	?debug	C 6B247176821E4812406973747265616D4067636F+
	?debug	C 756E7424717682204814406973747265616D4070+
	?debug	C 75746261636B24717A6382224813406973747265+
	?debug	C 616D4069676E6F72652471696982244825406973+
	?debug	C 747265616D40246272736824716E716D37697374+
	?debug	C 7265616D246D376973747265616D8226481D4069+
	?debug	C 73747265616D40246272736824716E716D33696F+
	?debug	C 73246D33696F7382284813406973747265616D40+
	?debug	C 246272736824716E7A63822A4813406973747265+
	?debug	C 616D40246272736824716E7563822C4813406973+
	?debug	C 747265616D40246272736824716D7563822E4813+
	?debug	C 406973747265616D40246272736824716D7A6382+
	?debug	C 304812406973747265616D40246272736824716D+
	?debug	C 7382324812406973747265616D40246272736824+
	?debug	C 716D6982344812406973747265616D4024627273+
	?debug	C 6824716D6C82364813406973747265616D402462+
	?debug	C 72736824716D757382384813406973747265616D+
	?debug	C 40246272736824716D7569823A48134069737472+
	?debug	C 65616D40246272736824716D756C823C48124069+
	?debug	C 73747265616D40246272736824716D66823E4812+
	?debug	C 406973747265616D40246272736824716D648240+
	?debug	C 4812406973747265616D40246272736824716D67+
	?debug	C 8242481B406973747265616D4024627273682471+
	?debug	C 6E3973747265616D62756682444A114069737472+
	?debug	C 65616D4024626374722471768246481440697374+
	?debug	C 7265616D40656174776869746524717682484004+
	?debug	C 000000000767636F756E745F0448124069737472+
	?debug	C 65616D40646F5F676574247176824AC02E000000
	?debug	C E24A1240696673747265616D4024626374722471+
	?debug	C 76824D4A1740696673747265616D402462637472+
	?debug	C 24716E787A636969824F4A174069667374726561+
	?debug	C 6D40246263747224716E787563696982514A1240+
	?debug	C 696673747265616D40246263747224716982534A+
	?debug	C 1640696673747265616D4024626374722471696E+
	?debug	C 7A636982554A1640696673747265616D40246263+
	?debug	C 74722471696E75636982574D1240696673747265+
	?debug	C 616D402462647472247176825948124069667374+
	?debug	C 7265616D407264627566247176825B4816406966+
	?debug	C 73747265616D406F70656E24716E787A63696982+
	?debug	C 5D481640696673747265616D406F70656E24716E+
	?debug	C 7875636969825FC068000000
	?debug	C E200087265736572766564826800066174747269+
	?debug	C 6202000777725F74696D650A000777725F646174+
	?debug	C 650A000473697A650600046E616D658269C02B00+
	?debug	C 0000
	?debug	C E2000B66665F7265736572766564826B00096666+
	?debug	C 5F61747472696202000866665F6674696D650A00+
	?debug	C 0866665F66646174650A000866665F6673697A65+
	?debug	C 06000766665F6E616D65826CC02B000000
	?debug	C E20004725F61780A0004725F62780A0004725F63+
	?debug	C 780A0004725F64780A0004725F62700A0004725F+
	?debug	C 73690A0004725F64690A0004725F64730A000472+
	?debug	C 5F65730A0007725F666C6167730AC014000000
	?debug	C E2000265730A000263730A000273730A00026473+
	?debug	C 0AC008000000
	?debug	C E200017882700001688271C010000000
	?debug	C E2000261780A000262780A000263780A00026478+
	?debug	C 0A000273690A000264690A000563666C61670A00+
	?debug	C 05666C6167730AC010000000
	?debug	C E20002616C0800026168080002626C0800026268+
	?debug	C 080002636C0800026368080002646C0800026468+
	?debug	C 08C008000000
	?debug	C E200036461790800056D6F6E7468080004796561+
	?debug	C 720A00096461796F667765656B08C005000000
	?debug	C E2000764615F7965617204000664615F64617902+
	?debug	C 000664615F6D6F6E02C004000000
	?debug	C E20004686F75720800066D696E75746508000673+
	?debug	C 65636F6E64080007687365636F6E6408C0040000+
	?debug	C 00
	?debug	C E2000674695F6D696E08000774695F686F757208+
	?debug	C 000774695F68756E6408000674695F73656308C0+
	?debug	C 04000000
	?debug	C E2000764685F6E65787406000764685F61747472+
	?debug	C 04000864685F73747261740A000864685F696E74+
	?debug	C 65720A000764685F6E616D658277C012000000
	?debug	C E2000866695F73636C757302000866695F666174+
	?debug	C 696402000866695F6E636C75730A000866695F62+
	?debug	C 7973656304C006000000
	?debug	C E2000E746F74616C5F636C7573746572730A000E+
	?debug	C 617661696C5F636C7573746572730A0013736563+
	?debug	C 746F72735F7065725F636C75737465720A001062+
	?debug	C 797465735F7065725F736563746F720AC0080000+
	?debug	C 00
	?debug	C E2000864665F617661696C0A000864665F746F74+
	?debug	C 616C0A000764665F627365630A000864665F7363+
	?debug	C 6C75730AC008000000
	?debug	C E2000B64655F6578746572726F7204000864655F+
	?debug	C 636C61737302000964655F616374696F6E020008+
	?debug	C 64655F6C6F63757302C005000000
	?debug	C E20007636F5F64617465040007636F5F63757272+
	?debug	C 827D0008636F5F7468736570827E0008636F5F64+
	?debug	C 65736570827F0008636F5F647473657082800008+
	?debug	C 636F5F746D7365708281000C636F5F6375727273+
	?debug	C 74796C65020009636F5F64696769747302000763+
	?debug	C 6F5F74696D65020007636F5F6361736506000863+
	?debug	C 6F5F646173657082820007636F5F66696C6C8283+
	?debug	C C022000000
	?debug	C E20009786663625F666C6167020009786663625F+
	?debug	C 7265737682850009786663625F61747472020008+
	?debug	C 786663625F6663628286C02C000000
	?debug	C E200096663625F64726976650200086663625F6E+
	?debug	C 616D65828700076663625F6578748288000A6663+
	?debug	C 625F637572626C6B04000B6663625F7265637369+
	?debug	C 7A6504000B6663625F66696C73697A6506000866+
	?debug	C 63625F646174650400086663625F726573768289+
	?debug	C 000A6663625F63757272656302000A6663625F72+
	?debug	C 616E646F6D06C025000000
	?debug	C E24A18405472616E736665724F7363696C6C4024+
	?debug	C 62637472247176828D6017405472616E73666572+
	?debug	C 4F7363696C6C404E696B4E616D65828F4C184054+
	?debug	C 72616E736665724F7363696C6C40526573657424+
	?debug	C 717682904C17405472616E736665724F7363696C+
	?debug	C 6C4043616C6324716682924C18405472616E7366+
	?debug	C 65724F7363696C6C404275696C6424717682944C+
	?debug	C 1C405472616E736665724F7363696C6C40536574+
	?debug	C 506172616D24716E7682964C1C405472616E7366+
	?debug	C 65724F7363696C6C40506172616D53697A652471+
	?debug	C 7682984C1C405472616E736665724F7363696C6C+
	?debug	C 40476574506172616D24716E76829A4C1C405472+
	?debug	C 616E736665724F7363696C6C4055736572456E74+
	?debug	C 6572247176829C400C0000000004467265710E00+
	?debug	C 0542657474610E000143829E00034C616D829F00+
	?debug	C 015882A000015982A1000374696B04C046000000
	?debug	C E26016404453706565644F7363696C6C41404E69+
	?debug	C 6B4E616D6582A24C16404453706565644F736369+
	?debug	C 6C6C414043616C6324716682A34C174044537065+
	?debug	C 65644F7363696C6C41404275696C6424717682A5+
	?debug	C C046000000
	?debug	C E260154053706565644F7363696C6C41404E696B+
	?debug	C 4E616D6582A84C164053706565644F7363696C6C+
	?debug	C 41404275696C6424717682A9C046000000
	?debug	C E26018405472616E736665724F7363696C6C4140+
	?debug	C 4E696B4E616D6582AC4C19405472616E73666572+
	?debug	C 4F7363696C6C41404275696C6424717682ADC046+
	?debug	C 000000
	?debug	C E20004467265710E000542657474610EC0080000+
	?debug	C 00
	?debug	C E24A184053696E676C6546756E6374696F6E4024+
	?debug	C 6263747224717682B360174053696E676C654675+
	?debug	C 6E6374696F6E404E696B4E616D6582B54C174053+
	?debug	C 696E676C6546756E6374696F6E4043616C632471+
	?debug	C 6682B64C1C4053696E676C6546756E6374696F6E+
	?debug	C 40536574506172616D24716E7682B84C1C405369+
	?debug	C 6E676C6546756E6374696F6E40506172616D5369+
	?debug	C 7A6524717682BA4C1C4053696E676C6546756E63+
	?debug	C 74696F6E40476574506172616D24716E7682BC4C+
	?debug	C 1C4053696E676C6546756E6374696F6E40557365+
	?debug	C 72456E74657224717682BE400C00000000016B0E+
	?debug	C C010000000
	?debug	C E26015405371727446756E6374696F6E404E696B+
	?debug	C 4E616D6582C04C15405371727446756E6374696F+
	?debug	C 6E4043616C6324716682C1C010000000
	?debug	C E2601640466865726446756E6374696F6E404E69+
	?debug	C 6B4E616D6582C44C1640466865726446756E6374+
	?debug	C 696F6E4043616C6324716682C5C010000000
	?debug	C E2601740446F75626C6546756E6374696F6E404E+
	?debug	C 696B4E616D6582C84C1740446F75626C6546756E+
	?debug	C 6374696F6E4043616C6324716682C9C010000000
	?debug	C E200016B0EC004000000
	?debug	C E24A1C40696F73747265616D4024626374722471+
	?debug	C 6E3973747265616D62756682D14D1240696F7374+
	?debug	C 7265616D40246264747224717682D34A1240696F+
	?debug	C 73747265616D40246263747224717682D5C03200+
	?debug	C 0000
	?debug	C E24A11406673747265616D402462637472247176+
	?debug	C 82D84A16406673747265616D4024626374722471+
	?debug	C 6E787A63696982DA4A16406673747265616D4024+
	?debug	C 6263747224716E787563696982DC4A1140667374+
	?debug	C 7265616D40246263747224716982DE4A15406673+
	?debug	C 747265616D4024626374722471696E7A636982E0+
	?debug	C 4A15406673747265616D4024626374722471696E+
	?debug	C 75636982E24D11406673747265616D4024626474+
	?debug	C 7224717682E44811406673747265616D40726462+
	?debug	C 756624717682E64815406673747265616D406F70+
	?debug	C 656E24716E787A63696982E84815406673747265+
	?debug	C 616D406F70656E24716E787563696982EAC06C00+
	?debug	C 0000
	?debug	C E24A12406F6673747265616D4024626374722471+
	?debug	C 7682EE4A17406F6673747265616D402462637472+
	?debug	C 24716E787A63696982F04A17406F667374726561+
	?debug	C 6D40246263747224716E787563696982F24A1240+
	?debug	C 6F6673747265616D40246263747224716982F44A+
	?debug	C 16406F6673747265616D4024626374722471696E+
	?debug	C 7A636982F64A16406F6673747265616D40246263+
	?debug	C 74722471696E75636982F84D12406F6673747265+
	?debug	C 616D40246264747224717682FA4812406F667374+
	?debug	C 7265616D40726462756624717682FC4816406F66+
	?debug	C 73747265616D406F70656E24716E787A63696982+
	?debug	C FE4816406F6673747265616D406F70656E24716E+
	?debug	C 78756369698300C066000000
	?debug	C E24A1C406F73747265616D5F7769746861737369+
	?debug	C 676E40246263747224717683044D1C406F737472+
	?debug	C 65616D5F7769746861737369676E402462647472+
	?debug	C 24717683064824406F73747265616D5F77697468+
	?debug	C 61737369676E40246261736724716D376F737472+
	?debug	C 65616D83094826406F73747265616D5F77697468+
	?debug	C 61737369676E40246261736724716E3973747265+
	?debug	C 616D627566830BC02C000000
	?debug	C E24A1D40696F73747265616D5F77697468617373+
	?debug	C 69676E402462637472247176830F4D1D40696F73+
	?debug	C 747265616D5F7769746861737369676E40246264+
	?debug	C 74722471768311482140696F73747265616D5F77+
	?debug	C 69746861737369676E40246261736724716D3369+
	?debug	C 6F738314482740696F73747265616D5F77697468+
	?debug	C 61737369676E40246261736724716E3973747265+
	?debug	C 616D6275668316C032000000
	?debug	C E24A1C406973747265616D5F7769746861737369+
	?debug	C 676E402462637472247176831A4D1C4069737472+
	?debug	C 65616D5F7769746861737369676E402462647472+
	?debug	C 247176831C4824406973747265616D5F77697468+
	?debug	C 61737369676E40246261736724716D3769737472+
	?debug	C 65616D831F4826406973747265616D5F77697468+
	?debug	C 61737369676E40246261736724716E3973747265+
	?debug	C 616D6275668321C02E000000
	end
